
JATmegaC.elf:     file format elf32-avr

Sections:
Idx Name          Size      VMA       LMA       File off  Algn
  0 .data         00000052  00800100  00000e1e  00000eb2  2**0
                  CONTENTS, ALLOC, LOAD, DATA
  1 .text         00000e1e  00000000  00000000  00000094  2**1
                  CONTENTS, ALLOC, LOAD, READONLY, CODE
  2 .bss          0000011e  00800152  00800152  00000f04  2**0
                  ALLOC

Disassembly of section .text:

00000000 <__vectors>:
   0:	0c 94 35 00 	jmp	0x6a	; 0x6a <__ctors_end>
   4:	0c 94 5d 00 	jmp	0xba	; 0xba <__bad_interrupt>
   8:	0c 94 5d 00 	jmp	0xba	; 0xba <__bad_interrupt>
   c:	0c 94 5d 00 	jmp	0xba	; 0xba <__bad_interrupt>
  10:	0c 94 5d 00 	jmp	0xba	; 0xba <__bad_interrupt>
  14:	0c 94 5d 00 	jmp	0xba	; 0xba <__bad_interrupt>
  18:	0c 94 5d 00 	jmp	0xba	; 0xba <__bad_interrupt>
  1c:	0c 94 5d 00 	jmp	0xba	; 0xba <__bad_interrupt>
  20:	0c 94 5d 00 	jmp	0xba	; 0xba <__bad_interrupt>
  24:	0c 94 5d 00 	jmp	0xba	; 0xba <__bad_interrupt>
  28:	0c 94 5d 00 	jmp	0xba	; 0xba <__bad_interrupt>
  2c:	0c 94 5d 00 	jmp	0xba	; 0xba <__bad_interrupt>
  30:	0c 94 5d 00 	jmp	0xba	; 0xba <__bad_interrupt>
  34:	0c 94 5d 00 	jmp	0xba	; 0xba <__bad_interrupt>
  38:	0c 94 5d 00 	jmp	0xba	; 0xba <__bad_interrupt>
  3c:	0c 94 5d 00 	jmp	0xba	; 0xba <__bad_interrupt>
  40:	0c 94 5d 00 	jmp	0xba	; 0xba <__bad_interrupt>
  44:	0c 94 5d 00 	jmp	0xba	; 0xba <__bad_interrupt>
  48:	0c 94 f1 01 	jmp	0x3e2	; 0x3e2 <__vector_18>
  4c:	0c 94 5d 00 	jmp	0xba	; 0xba <__bad_interrupt>
  50:	0c 94 45 01 	jmp	0x28a	; 0x28a <__vector_20>
  54:	0c 94 5d 00 	jmp	0xba	; 0xba <__bad_interrupt>
  58:	0c 94 5d 00 	jmp	0xba	; 0xba <__bad_interrupt>
  5c:	0c 94 5d 00 	jmp	0xba	; 0xba <__bad_interrupt>
  60:	0c 94 5d 00 	jmp	0xba	; 0xba <__bad_interrupt>
  64:	0c 94 5d 00 	jmp	0xba	; 0xba <__bad_interrupt>

00000068 <__ctors_start>:
  68:	bb 02       	muls	r27, r27

0000006a <__ctors_end>:
  6a:	11 24       	eor	r1, r1
  6c:	1f be       	out	0x3f, r1	; 63
  6e:	cf ef       	ldi	r28, 0xFF	; 255
  70:	d4 e0       	ldi	r29, 0x04	; 4
  72:	de bf       	out	0x3e, r29	; 62
  74:	cd bf       	out	0x3d, r28	; 61

00000076 <__do_copy_data>:
  76:	11 e0       	ldi	r17, 0x01	; 1
  78:	a0 e0       	ldi	r26, 0x00	; 0
  7a:	b1 e0       	ldi	r27, 0x01	; 1
  7c:	ee e1       	ldi	r30, 0x1E	; 30
  7e:	fe e0       	ldi	r31, 0x0E	; 14
  80:	02 c0       	rjmp	.+4      	; 0x86 <.do_copy_data_start>

00000082 <.do_copy_data_loop>:
  82:	05 90       	lpm	r0, Z+
  84:	0d 92       	st	X+, r0

00000086 <.do_copy_data_start>:
  86:	a2 35       	cpi	r26, 0x52	; 82
  88:	b1 07       	cpc	r27, r17
  8a:	d9 f7       	brne	.-10     	; 0x82 <.do_copy_data_loop>

0000008c <__do_clear_bss>:
  8c:	12 e0       	ldi	r17, 0x02	; 2
  8e:	a2 e5       	ldi	r26, 0x52	; 82
  90:	b1 e0       	ldi	r27, 0x01	; 1
  92:	01 c0       	rjmp	.+2      	; 0x96 <.do_clear_bss_start>

00000094 <.do_clear_bss_loop>:
  94:	1d 92       	st	X+, r1

00000096 <.do_clear_bss_start>:
  96:	a0 37       	cpi	r26, 0x70	; 112
  98:	b1 07       	cpc	r27, r17
  9a:	e1 f7       	brne	.-8      	; 0x94 <.do_clear_bss_loop>

0000009c <__do_global_ctors>:
  9c:	10 e0       	ldi	r17, 0x00	; 0
  9e:	ca e6       	ldi	r28, 0x6A	; 106
  a0:	d0 e0       	ldi	r29, 0x00	; 0
  a2:	04 c0       	rjmp	.+8      	; 0xac <.do_global_ctors_start>

000000a4 <.do_global_ctors_loop>:
  a4:	22 97       	sbiw	r28, 0x02	; 2
  a6:	fe 01       	movw	r30, r28
  a8:	0e 94 02 07 	call	0xe04	; 0xe04 <__tablejump__>

000000ac <.do_global_ctors_start>:
  ac:	c8 36       	cpi	r28, 0x68	; 104
  ae:	d1 07       	cpc	r29, r17
  b0:	c9 f7       	brne	.-14     	; 0xa4 <.do_global_ctors_loop>
  b2:	0e 94 c0 02 	call	0x580	; 0x580 <main>
  b6:	0c 94 0d 07 	jmp	0xe1a	; 0xe1a <_exit>

000000ba <__bad_interrupt>:
  ba:	0c 94 00 00 	jmp	0	; 0x0 <__vectors>

000000be <_ZN18ProtocolControllerC2Ev>:
  be:	fc 01       	movw	r30, r24
  c0:	84 e0       	ldi	r24, 0x04	; 4
  c2:	91 e0       	ldi	r25, 0x01	; 1
  c4:	91 83       	std	Z+1, r25	; 0x01
  c6:	80 83       	st	Z, r24
  c8:	13 8a       	std	Z+19, r1	; 0x13
  ca:	12 8a       	std	Z+18, r1	; 0x12
  cc:	08 95       	ret

000000ce <_ZN18ProtocolControllerC1Ev>:
  ce:	fc 01       	movw	r30, r24
  d0:	84 e0       	ldi	r24, 0x04	; 4
  d2:	91 e0       	ldi	r25, 0x01	; 1
  d4:	91 83       	std	Z+1, r25	; 0x01
  d6:	80 83       	st	Z, r24
  d8:	13 8a       	std	Z+19, r1	; 0x13
  da:	12 8a       	std	Z+18, r1	; 0x12
  dc:	08 95       	ret

000000de <_ZN18ProtocolController19removeProtocolFrameEPc>:
  de:	fb 01       	movw	r30, r22
  e0:	02 c0       	rjmp	.+4      	; 0xe6 <_ZN18ProtocolController19removeProtocolFrameEPc+0x8>
  e2:	82 81       	ldd	r24, Z+2	; 0x02
  e4:	81 93       	st	Z+, r24
  e6:	80 81       	ld	r24, Z
  e8:	88 23       	and	r24, r24
  ea:	d9 f7       	brne	.-10     	; 0xe2 <_ZN18ProtocolController19removeProtocolFrameEPc+0x4>
  ec:	10 82       	st	Z, r1
  ee:	08 95       	ret

000000f0 <_ZN18ProtocolController16addProtocolFrameEPccc>:
  f0:	db 01       	movw	r26, r22
  f2:	60 e0       	ldi	r22, 0x00	; 0
  f4:	70 e0       	ldi	r23, 0x00	; 0
  f6:	02 c0       	rjmp	.+4      	; 0xfc <_ZN18ProtocolController16addProtocolFrameEPccc+0xc>
  f8:	6f 5f       	subi	r22, 0xFF	; 255
  fa:	7f 4f       	sbci	r23, 0xFF	; 255
  fc:	fd 01       	movw	r30, r26
  fe:	e6 0f       	add	r30, r22
 100:	f7 1f       	adc	r31, r23
 102:	80 81       	ld	r24, Z
 104:	88 23       	and	r24, r24
 106:	c1 f7       	brne	.-16     	; 0xf8 <_ZN18ProtocolController16addProtocolFrameEPccc+0x8>
 108:	bd 01       	movw	r22, r26
 10a:	61 50       	subi	r22, 0x01	; 1
 10c:	70 40       	sbci	r23, 0x00	; 0
 10e:	80 81       	ld	r24, Z
 110:	82 83       	std	Z+2, r24	; 0x02
 112:	31 97       	sbiw	r30, 0x01	; 1
 114:	e6 17       	cp	r30, r22
 116:	f7 07       	cpc	r31, r23
 118:	d1 f7       	brne	.-12     	; 0x10e <_ZN18ProtocolController16addProtocolFrameEPccc+0x1e>
 11a:	4c 93       	st	X, r20
 11c:	11 96       	adiw	r26, 0x01	; 1
 11e:	2c 93       	st	X, r18
 120:	08 95       	ret

00000122 <_ZN18ProtocolController7onEventEPv>:
 122:	af 92       	push	r10
 124:	bf 92       	push	r11
 126:	cf 92       	push	r12
 128:	df 92       	push	r13
 12a:	ef 92       	push	r14
 12c:	ff 92       	push	r15
 12e:	0f 93       	push	r16
 130:	1f 93       	push	r17
 132:	df 93       	push	r29
 134:	cf 93       	push	r28
 136:	cd b7       	in	r28, 0x3d	; 61
 138:	de b7       	in	r29, 0x3e	; 62
 13a:	c0 5f       	subi	r28, 0xF0	; 240
 13c:	d0 40       	sbci	r29, 0x00	; 0
 13e:	0f b6       	in	r0, 0x3f	; 63
 140:	f8 94       	cli
 142:	de bf       	out	0x3e, r29	; 62
 144:	0f be       	out	0x3f, r0	; 63
 146:	cd bf       	out	0x3d, r28	; 61
 148:	6c 01       	movw	r12, r24
 14a:	ab 01       	movw	r20, r22
 14c:	20 e0       	ldi	r18, 0x00	; 0
 14e:	30 e0       	ldi	r19, 0x00	; 0
 150:	02 c0       	rjmp	.+4      	; 0x156 <_ZN18ProtocolController7onEventEPv+0x34>
 152:	2f 5f       	subi	r18, 0xFF	; 255
 154:	3f 4f       	sbci	r19, 0xFF	; 255
 156:	fa 01       	movw	r30, r20
 158:	e2 0f       	add	r30, r18
 15a:	f3 1f       	adc	r31, r19
 15c:	80 81       	ld	r24, Z
 15e:	88 23       	and	r24, r24
 160:	c1 f7       	brne	.-16     	; 0x152 <_ZN18ProtocolController7onEventEPv+0x30>
 162:	23 30       	cpi	r18, 0x03	; 3
 164:	31 05       	cpc	r19, r1
 166:	0c f4       	brge	.+2      	; 0x16a <_ZN18ProtocolController7onEventEPv+0x48>
 168:	65 c0       	rjmp	.+202    	; 0x234 <_ZN18ProtocolController7onEventEPv+0x112>
 16a:	da 01       	movw	r26, r20
 16c:	bc 90       	ld	r11, X
 16e:	11 96       	adiw	r26, 0x01	; 1
 170:	ac 90       	ld	r10, X
 172:	19 82       	std	Y+1, r1	; 0x01
 174:	fe 01       	movw	r30, r28
 176:	e7 58       	subi	r30, 0x87	; 135
 178:	ff 4f       	sbci	r31, 0xFF	; 255
 17a:	10 82       	st	Z, r1
 17c:	a0 e0       	ldi	r26, 0x00	; 0
 17e:	b0 e0       	ldi	r27, 0x00	; 0
 180:	be 01       	movw	r22, r28
 182:	6f 5f       	subi	r22, 0xFF	; 255
 184:	7f 4f       	sbci	r23, 0xFF	; 255
 186:	05 c0       	rjmp	.+10     	; 0x192 <_ZN18ProtocolController7onEventEPv+0x70>
 188:	fb 01       	movw	r30, r22
 18a:	ea 0f       	add	r30, r26
 18c:	fb 1f       	adc	r31, r27
 18e:	80 83       	st	Z, r24
 190:	11 96       	adiw	r26, 0x01	; 1
 192:	fa 01       	movw	r30, r20
 194:	ea 0f       	add	r30, r26
 196:	fb 1f       	adc	r31, r27
 198:	80 81       	ld	r24, Z
 19a:	88 23       	and	r24, r24
 19c:	a9 f7       	brne	.-22     	; 0x188 <_ZN18ProtocolController7onEventEPv+0x66>
 19e:	a6 0f       	add	r26, r22
 1a0:	b7 1f       	adc	r27, r23
 1a2:	1c 92       	st	X, r1
 1a4:	c6 01       	movw	r24, r12
 1a6:	0e 94 6f 00 	call	0xde	; 0xde <_ZN18ProtocolController19removeProtocolFrameEPc>
 1aa:	76 01       	movw	r14, r12
 1ac:	00 e0       	ldi	r16, 0x00	; 0
 1ae:	10 e0       	ldi	r17, 0x00	; 0
 1b0:	38 c0       	rjmp	.+112    	; 0x222 <_ZN18ProtocolController7onEventEPv+0x100>
 1b2:	d7 01       	movw	r26, r14
 1b4:	12 96       	adiw	r26, 0x02	; 2
 1b6:	ed 91       	ld	r30, X+
 1b8:	fc 91       	ld	r31, X
 1ba:	13 97       	sbiw	r26, 0x03	; 3
 1bc:	a0 81       	ld	r26, Z
 1be:	b1 81       	ldd	r27, Z+1	; 0x01
 1c0:	12 96       	adiw	r26, 0x02	; 2
 1c2:	2d 91       	ld	r18, X+
 1c4:	3c 91       	ld	r19, X
 1c6:	13 97       	sbiw	r26, 0x03	; 3
 1c8:	cf 01       	movw	r24, r30
 1ca:	f9 01       	movw	r30, r18
 1cc:	09 95       	icall
 1ce:	e2 e0       	ldi	r30, 0x02	; 2
 1d0:	f0 e0       	ldi	r31, 0x00	; 0
 1d2:	ee 0e       	add	r14, r30
 1d4:	ff 1e       	adc	r15, r31
 1d6:	f8 01       	movw	r30, r16
 1d8:	31 96       	adiw	r30, 0x01	; 1
 1da:	8b 15       	cp	r24, r11
 1dc:	09 f5       	brne	.+66     	; 0x220 <_ZN18ProtocolController7onEventEPv+0xfe>
 1de:	ee 0f       	add	r30, r30
 1e0:	ff 1f       	adc	r31, r31
 1e2:	ec 0d       	add	r30, r12
 1e4:	fd 1d       	adc	r31, r13
 1e6:	a0 81       	ld	r26, Z
 1e8:	b1 81       	ldd	r27, Z+1	; 0x01
 1ea:	ed 91       	ld	r30, X+
 1ec:	fc 91       	ld	r31, X
 1ee:	11 97       	sbiw	r26, 0x01	; 1
 1f0:	8e 01       	movw	r16, r28
 1f2:	07 58       	subi	r16, 0x87	; 135
 1f4:	1f 4f       	sbci	r17, 0xFF	; 255
 1f6:	01 90       	ld	r0, Z+
 1f8:	f0 81       	ld	r31, Z
 1fa:	e0 2d       	mov	r30, r0
 1fc:	cd 01       	movw	r24, r26
 1fe:	be 01       	movw	r22, r28
 200:	6f 5f       	subi	r22, 0xFF	; 255
 202:	7f 4f       	sbci	r23, 0xFF	; 255
 204:	a8 01       	movw	r20, r16
 206:	09 95       	icall
 208:	c6 01       	movw	r24, r12
 20a:	b8 01       	movw	r22, r16
 20c:	4b 2d       	mov	r20, r11
 20e:	2a 2d       	mov	r18, r10
 210:	0e 94 78 00 	call	0xf0	; 0xf0 <_ZN18ProtocolController16addProtocolFrameEPccc>
 214:	82 e5       	ldi	r24, 0x52	; 82
 216:	91 e0       	ldi	r25, 0x01	; 1
 218:	b8 01       	movw	r22, r16
 21a:	0e 94 17 02 	call	0x42e	; 0x42e <_ZN12RSController8sendLineEPc>
 21e:	0a c0       	rjmp	.+20     	; 0x234 <_ZN18ProtocolController7onEventEPv+0x112>
 220:	8f 01       	movw	r16, r30
 222:	d6 01       	movw	r26, r12
 224:	52 96       	adiw	r26, 0x12	; 18
 226:	8d 91       	ld	r24, X+
 228:	9c 91       	ld	r25, X
 22a:	53 97       	sbiw	r26, 0x13	; 19
 22c:	08 17       	cp	r16, r24
 22e:	19 07       	cpc	r17, r25
 230:	0c f4       	brge	.+2      	; 0x234 <_ZN18ProtocolController7onEventEPv+0x112>
 232:	bf cf       	rjmp	.-130    	; 0x1b2 <_ZN18ProtocolController7onEventEPv+0x90>
 234:	c0 51       	subi	r28, 0x10	; 16
 236:	df 4f       	sbci	r29, 0xFF	; 255
 238:	0f b6       	in	r0, 0x3f	; 63
 23a:	f8 94       	cli
 23c:	de bf       	out	0x3e, r29	; 62
 23e:	0f be       	out	0x3f, r0	; 63
 240:	cd bf       	out	0x3d, r28	; 61
 242:	cf 91       	pop	r28
 244:	df 91       	pop	r29
 246:	1f 91       	pop	r17
 248:	0f 91       	pop	r16
 24a:	ff 90       	pop	r15
 24c:	ef 90       	pop	r14
 24e:	df 90       	pop	r13
 250:	cf 90       	pop	r12
 252:	bf 90       	pop	r11
 254:	af 90       	pop	r10
 256:	08 95       	ret

00000258 <_ZN12RSController9usartInitEj>:
 258:	70 93 c5 00 	sts	0x00C5, r23
 25c:	60 93 c4 00 	sts	0x00C4, r22
 260:	86 e0       	ldi	r24, 0x06	; 6
 262:	80 93 c2 00 	sts	0x00C2, r24
 266:	88 ed       	ldi	r24, 0xD8	; 216
 268:	80 93 c1 00 	sts	0x00C1, r24
 26c:	08 95       	ret

0000026e <_ZN12RSController4onTxEv>:
 26e:	9c 01       	movw	r18, r24
 270:	80 91 c0 00 	lds	r24, 0x00C0
 274:	85 ff       	sbrs	r24, 5
 276:	08 c0       	rjmp	.+16     	; 0x288 <_ZN12RSController4onTxEv+0x1a>
 278:	c9 01       	movw	r24, r18
 27a:	44 96       	adiw	r24, 0x14	; 20
 27c:	0e 94 31 04 	call	0x862	; 0x862 <_ZN10RingBuffer3getEv>
 280:	8f 3f       	cpi	r24, 0xFF	; 255
 282:	11 f0       	breq	.+4      	; 0x288 <_ZN12RSController4onTxEv+0x1a>
 284:	80 93 c6 00 	sts	0x00C6, r24
 288:	08 95       	ret

0000028a <__vector_20>:
 28a:	1f 92       	push	r1
 28c:	0f 92       	push	r0
 28e:	0f b6       	in	r0, 0x3f	; 63
 290:	0f 92       	push	r0
 292:	11 24       	eor	r1, r1
 294:	2f 93       	push	r18
 296:	3f 93       	push	r19
 298:	4f 93       	push	r20
 29a:	5f 93       	push	r21
 29c:	6f 93       	push	r22
 29e:	7f 93       	push	r23
 2a0:	8f 93       	push	r24
 2a2:	9f 93       	push	r25
 2a4:	af 93       	push	r26
 2a6:	bf 93       	push	r27
 2a8:	ef 93       	push	r30
 2aa:	ff 93       	push	r31
 2ac:	82 e5       	ldi	r24, 0x52	; 82
 2ae:	91 e0       	ldi	r25, 0x01	; 1
 2b0:	0e 94 37 01 	call	0x26e	; 0x26e <_ZN12RSController4onTxEv>
 2b4:	ff 91       	pop	r31
 2b6:	ef 91       	pop	r30
 2b8:	bf 91       	pop	r27
 2ba:	af 91       	pop	r26
 2bc:	9f 91       	pop	r25
 2be:	8f 91       	pop	r24
 2c0:	7f 91       	pop	r23
 2c2:	6f 91       	pop	r22
 2c4:	5f 91       	pop	r21
 2c6:	4f 91       	pop	r20
 2c8:	3f 91       	pop	r19
 2ca:	2f 91       	pop	r18
 2cc:	0f 90       	pop	r0
 2ce:	0f be       	out	0x3f, r0	; 63
 2d0:	0f 90       	pop	r0
 2d2:	1f 90       	pop	r1
 2d4:	18 95       	reti

000002d6 <_ZN12RSController6onTickEv>:
 2d6:	af 92       	push	r10
 2d8:	bf 92       	push	r11
 2da:	cf 92       	push	r12
 2dc:	df 92       	push	r13
 2de:	ef 92       	push	r14
 2e0:	ff 92       	push	r15
 2e2:	0f 93       	push	r16
 2e4:	1f 93       	push	r17
 2e6:	df 93       	push	r29
 2e8:	cf 93       	push	r28
 2ea:	cd b7       	in	r28, 0x3d	; 61
 2ec:	de b7       	in	r29, 0x3e	; 62
 2ee:	c0 58       	subi	r28, 0x80	; 128
 2f0:	d0 40       	sbci	r29, 0x00	; 0
 2f2:	0f b6       	in	r0, 0x3f	; 63
 2f4:	f8 94       	cli
 2f6:	de bf       	out	0x3e, r29	; 62
 2f8:	0f be       	out	0x3f, r0	; 63
 2fa:	cd bf       	out	0x3d, r28	; 61
 2fc:	6c 01       	movw	r12, r24
 2fe:	fc 01       	movw	r30, r24
 300:	e4 5e       	subi	r30, 0xE4	; 228
 302:	fe 4f       	sbci	r31, 0xFE	; 254
 304:	80 81       	ld	r24, Z
 306:	91 81       	ldd	r25, Z+1	; 0x01
 308:	89 2b       	or	r24, r25
 30a:	e9 f1       	breq	.+122    	; 0x386 <_ZN12RSController6onTickEv+0xb0>
 30c:	11 82       	std	Z+1, r1	; 0x01
 30e:	10 82       	st	Z, r1
 310:	8e 01       	movw	r16, r28
 312:	0f 5f       	subi	r16, 0xFF	; 255
 314:	1f 4f       	sbci	r17, 0xFF	; 255
 316:	80 e8       	ldi	r24, 0x80	; 128
 318:	f8 01       	movw	r30, r16
 31a:	11 92       	st	Z+, r1
 31c:	8a 95       	dec	r24
 31e:	e9 f7       	brne	.-6      	; 0x31a <_ZN12RSController6onTickEv+0x44>
 320:	98 e9       	ldi	r25, 0x98	; 152
 322:	a9 2e       	mov	r10, r25
 324:	b1 2c       	mov	r11, r1
 326:	ac 0c       	add	r10, r12
 328:	bd 1c       	adc	r11, r13
 32a:	c5 01       	movw	r24, r10
 32c:	0e 94 31 04 	call	0x862	; 0x862 <_ZN10RingBuffer3getEv>
 330:	ee 24       	eor	r14, r14
 332:	ff 24       	eor	r15, r15
 334:	11 c0       	rjmp	.+34     	; 0x358 <_ZN12RSController6onTickEv+0x82>
 336:	e1 14       	cp	r14, r1
 338:	f1 04       	cpc	r15, r1
 33a:	21 f4       	brne	.+8      	; 0x344 <_ZN12RSController6onTickEv+0x6e>
 33c:	89 83       	std	Y+1, r24	; 0x01
 33e:	81 e0       	ldi	r24, 0x01	; 1
 340:	e8 2e       	mov	r14, r24
 342:	f1 2c       	mov	r15, r1
 344:	c5 01       	movw	r24, r10
 346:	0e 94 31 04 	call	0x862	; 0x862 <_ZN10RingBuffer3getEv>
 34a:	f8 01       	movw	r30, r16
 34c:	ee 0d       	add	r30, r14
 34e:	ff 1d       	adc	r31, r15
 350:	80 83       	st	Z, r24
 352:	08 94       	sec
 354:	e1 1c       	adc	r14, r1
 356:	f1 1c       	adc	r15, r1
 358:	8f 3f       	cpi	r24, 0xFF	; 255
 35a:	11 f0       	breq	.+4      	; 0x360 <_ZN12RSController6onTickEv+0x8a>
 35c:	8d 30       	cpi	r24, 0x0D	; 13
 35e:	59 f7       	brne	.-42     	; 0x336 <_ZN12RSController6onTickEv+0x60>
 360:	d7 01       	movw	r26, r14
 362:	11 97       	sbiw	r26, 0x01	; 1
 364:	fe 01       	movw	r30, r28
 366:	ee 0d       	add	r30, r14
 368:	ff 1d       	adc	r31, r15
 36a:	80 81       	ld	r24, Z
 36c:	8d 30       	cpi	r24, 0x0D	; 13
 36e:	09 f0       	breq	.+2      	; 0x372 <_ZN12RSController6onTickEv+0x9c>
 370:	d7 01       	movw	r26, r14
 372:	be 01       	movw	r22, r28
 374:	6f 5f       	subi	r22, 0xFF	; 255
 376:	7f 4f       	sbci	r23, 0xFF	; 255
 378:	a6 0f       	add	r26, r22
 37a:	b7 1f       	adc	r27, r23
 37c:	1c 92       	st	X, r1
 37e:	c6 01       	movw	r24, r12
 380:	02 96       	adiw	r24, 0x02	; 2
 382:	0e 94 cc 03 	call	0x798	; 0x798 <_ZN8Listener9fireEventEPv>
 386:	c0 58       	subi	r28, 0x80	; 128
 388:	df 4f       	sbci	r29, 0xFF	; 255
 38a:	0f b6       	in	r0, 0x3f	; 63
 38c:	f8 94       	cli
 38e:	de bf       	out	0x3e, r29	; 62
 390:	0f be       	out	0x3f, r0	; 63
 392:	cd bf       	out	0x3d, r28	; 61
 394:	cf 91       	pop	r28
 396:	df 91       	pop	r29
 398:	1f 91       	pop	r17
 39a:	0f 91       	pop	r16
 39c:	ff 90       	pop	r15
 39e:	ef 90       	pop	r14
 3a0:	df 90       	pop	r13
 3a2:	cf 90       	pop	r12
 3a4:	bf 90       	pop	r11
 3a6:	af 90       	pop	r10
 3a8:	08 95       	ret

000003aa <_ZN12RSController4onRxEv>:
 3aa:	1f 93       	push	r17
 3ac:	cf 93       	push	r28
 3ae:	df 93       	push	r29
 3b0:	ec 01       	movw	r28, r24
 3b2:	80 91 c0 00 	lds	r24, 0x00C0
 3b6:	87 ff       	sbrs	r24, 7
 3b8:	10 c0       	rjmp	.+32     	; 0x3da <_ZN12RSController4onRxEv+0x30>
 3ba:	10 91 c6 00 	lds	r17, 0x00C6
 3be:	ce 01       	movw	r24, r28
 3c0:	88 56       	subi	r24, 0x68	; 104
 3c2:	9f 4f       	sbci	r25, 0xFF	; 255
 3c4:	61 2f       	mov	r22, r17
 3c6:	0e 94 07 04 	call	0x80e	; 0x80e <_ZN10RingBuffer3addEc>
 3ca:	1d 30       	cpi	r17, 0x0D	; 13
 3cc:	31 f4       	brne	.+12     	; 0x3da <_ZN12RSController4onRxEv+0x30>
 3ce:	c4 5e       	subi	r28, 0xE4	; 228
 3d0:	de 4f       	sbci	r29, 0xFE	; 254
 3d2:	81 e0       	ldi	r24, 0x01	; 1
 3d4:	90 e0       	ldi	r25, 0x00	; 0
 3d6:	99 83       	std	Y+1, r25	; 0x01
 3d8:	88 83       	st	Y, r24
 3da:	df 91       	pop	r29
 3dc:	cf 91       	pop	r28
 3de:	1f 91       	pop	r17
 3e0:	08 95       	ret

000003e2 <__vector_18>:
 3e2:	1f 92       	push	r1
 3e4:	0f 92       	push	r0
 3e6:	0f b6       	in	r0, 0x3f	; 63
 3e8:	0f 92       	push	r0
 3ea:	11 24       	eor	r1, r1
 3ec:	2f 93       	push	r18
 3ee:	3f 93       	push	r19
 3f0:	4f 93       	push	r20
 3f2:	5f 93       	push	r21
 3f4:	6f 93       	push	r22
 3f6:	7f 93       	push	r23
 3f8:	8f 93       	push	r24
 3fa:	9f 93       	push	r25
 3fc:	af 93       	push	r26
 3fe:	bf 93       	push	r27
 400:	ef 93       	push	r30
 402:	ff 93       	push	r31
 404:	82 e5       	ldi	r24, 0x52	; 82
 406:	91 e0       	ldi	r25, 0x01	; 1
 408:	0e 94 d5 01 	call	0x3aa	; 0x3aa <_ZN12RSController4onRxEv>
 40c:	ff 91       	pop	r31
 40e:	ef 91       	pop	r30
 410:	bf 91       	pop	r27
 412:	af 91       	pop	r26
 414:	9f 91       	pop	r25
 416:	8f 91       	pop	r24
 418:	7f 91       	pop	r23
 41a:	6f 91       	pop	r22
 41c:	5f 91       	pop	r21
 41e:	4f 91       	pop	r20
 420:	3f 91       	pop	r19
 422:	2f 91       	pop	r18
 424:	0f 90       	pop	r0
 426:	0f be       	out	0x3f, r0	; 63
 428:	0f 90       	pop	r0
 42a:	1f 90       	pop	r1
 42c:	18 95       	reti

0000042e <_ZN12RSController8sendLineEPc>:
 42e:	ef 92       	push	r14
 430:	ff 92       	push	r15
 432:	0f 93       	push	r16
 434:	1f 93       	push	r17
 436:	cf 93       	push	r28
 438:	df 93       	push	r29
 43a:	7c 01       	movw	r14, r24
 43c:	eb 01       	movw	r28, r22
 43e:	8c 01       	movw	r16, r24
 440:	0c 5e       	subi	r16, 0xEC	; 236
 442:	1f 4f       	sbci	r17, 0xFF	; 255
 444:	04 c0       	rjmp	.+8      	; 0x44e <_ZN12RSController8sendLineEPc+0x20>
 446:	c8 01       	movw	r24, r16
 448:	0e 94 07 04 	call	0x80e	; 0x80e <_ZN10RingBuffer3addEc>
 44c:	21 96       	adiw	r28, 0x01	; 1
 44e:	68 81       	ld	r22, Y
 450:	66 23       	and	r22, r22
 452:	c9 f7       	brne	.-14     	; 0x446 <_ZN12RSController8sendLineEPc+0x18>
 454:	c8 01       	movw	r24, r16
 456:	6d e0       	ldi	r22, 0x0D	; 13
 458:	0e 94 07 04 	call	0x80e	; 0x80e <_ZN10RingBuffer3addEc>
 45c:	c8 01       	movw	r24, r16
 45e:	6a e0       	ldi	r22, 0x0A	; 10
 460:	0e 94 07 04 	call	0x80e	; 0x80e <_ZN10RingBuffer3addEc>
 464:	c7 01       	movw	r24, r14
 466:	0e 94 37 01 	call	0x26e	; 0x26e <_ZN12RSController4onTxEv>
 46a:	df 91       	pop	r29
 46c:	cf 91       	pop	r28
 46e:	1f 91       	pop	r17
 470:	0f 91       	pop	r16
 472:	ff 90       	pop	r15
 474:	ef 90       	pop	r14
 476:	08 95       	ret

00000478 <_ZN12RSController4sendEPc>:
 478:	ef 92       	push	r14
 47a:	ff 92       	push	r15
 47c:	0f 93       	push	r16
 47e:	1f 93       	push	r17
 480:	cf 93       	push	r28
 482:	df 93       	push	r29
 484:	8c 01       	movw	r16, r24
 486:	eb 01       	movw	r28, r22
 488:	24 e1       	ldi	r18, 0x14	; 20
 48a:	e2 2e       	mov	r14, r18
 48c:	f1 2c       	mov	r15, r1
 48e:	e8 0e       	add	r14, r24
 490:	f9 1e       	adc	r15, r25
 492:	04 c0       	rjmp	.+8      	; 0x49c <_ZN12RSController4sendEPc+0x24>
 494:	c7 01       	movw	r24, r14
 496:	0e 94 07 04 	call	0x80e	; 0x80e <_ZN10RingBuffer3addEc>
 49a:	21 96       	adiw	r28, 0x01	; 1
 49c:	68 81       	ld	r22, Y
 49e:	66 23       	and	r22, r22
 4a0:	c9 f7       	brne	.-14     	; 0x494 <_ZN12RSController4sendEPc+0x1c>
 4a2:	c8 01       	movw	r24, r16
 4a4:	0e 94 37 01 	call	0x26e	; 0x26e <_ZN12RSController4onTxEv>
 4a8:	df 91       	pop	r29
 4aa:	cf 91       	pop	r28
 4ac:	1f 91       	pop	r17
 4ae:	0f 91       	pop	r16
 4b0:	ff 90       	pop	r15
 4b2:	ef 90       	pop	r14
 4b4:	08 95       	ret

000004b6 <_ZN12RSControllerC1Ev>:
 4b6:	0f 93       	push	r16
 4b8:	1f 93       	push	r17
 4ba:	8c 01       	movw	r16, r24
 4bc:	02 96       	adiw	r24, 0x02	; 2
 4be:	0e 94 82 03 	call	0x704	; 0x704 <_ZN8ListenerC2Ev>
 4c2:	80 e1       	ldi	r24, 0x10	; 16
 4c4:	91 e0       	ldi	r25, 0x01	; 1
 4c6:	f8 01       	movw	r30, r16
 4c8:	91 83       	std	Z+1, r25	; 0x01
 4ca:	80 83       	st	Z, r24
 4cc:	c8 01       	movw	r24, r16
 4ce:	44 96       	adiw	r24, 0x14	; 20
 4d0:	0e 94 ff 03 	call	0x7fe	; 0x7fe <_ZN10RingBufferC1Ev>
 4d4:	c8 01       	movw	r24, r16
 4d6:	88 56       	subi	r24, 0x68	; 104
 4d8:	9f 4f       	sbci	r25, 0xFF	; 255
 4da:	0e 94 ff 03 	call	0x7fe	; 0x7fe <_ZN10RingBufferC1Ev>
 4de:	83 e3       	ldi	r24, 0x33	; 51
 4e0:	90 e0       	ldi	r25, 0x00	; 0
 4e2:	90 93 c5 00 	sts	0x00C5, r25
 4e6:	80 93 c4 00 	sts	0x00C4, r24
 4ea:	86 e0       	ldi	r24, 0x06	; 6
 4ec:	80 93 c2 00 	sts	0x00C2, r24
 4f0:	88 ed       	ldi	r24, 0xD8	; 216
 4f2:	80 93 c1 00 	sts	0x00C1, r24
 4f6:	04 5e       	subi	r16, 0xE4	; 228
 4f8:	1e 4f       	sbci	r17, 0xFE	; 254
 4fa:	f8 01       	movw	r30, r16
 4fc:	11 82       	std	Z+1, r1	; 0x01
 4fe:	10 82       	st	Z, r1
 500:	1f 91       	pop	r17
 502:	0f 91       	pop	r16
 504:	08 95       	ret

00000506 <_ZN12RSControllerC2Ev>:
 506:	0f 93       	push	r16
 508:	1f 93       	push	r17
 50a:	8c 01       	movw	r16, r24
 50c:	02 96       	adiw	r24, 0x02	; 2
 50e:	0e 94 82 03 	call	0x704	; 0x704 <_ZN8ListenerC2Ev>
 512:	80 e1       	ldi	r24, 0x10	; 16
 514:	91 e0       	ldi	r25, 0x01	; 1
 516:	f8 01       	movw	r30, r16
 518:	91 83       	std	Z+1, r25	; 0x01
 51a:	80 83       	st	Z, r24
 51c:	c8 01       	movw	r24, r16
 51e:	44 96       	adiw	r24, 0x14	; 20
 520:	0e 94 ff 03 	call	0x7fe	; 0x7fe <_ZN10RingBufferC1Ev>
 524:	c8 01       	movw	r24, r16
 526:	88 56       	subi	r24, 0x68	; 104
 528:	9f 4f       	sbci	r25, 0xFF	; 255
 52a:	0e 94 ff 03 	call	0x7fe	; 0x7fe <_ZN10RingBufferC1Ev>
 52e:	83 e3       	ldi	r24, 0x33	; 51
 530:	90 e0       	ldi	r25, 0x00	; 0
 532:	90 93 c5 00 	sts	0x00C5, r25
 536:	80 93 c4 00 	sts	0x00C4, r24
 53a:	86 e0       	ldi	r24, 0x06	; 6
 53c:	80 93 c2 00 	sts	0x00C2, r24
 540:	88 ed       	ldi	r24, 0xD8	; 216
 542:	80 93 c1 00 	sts	0x00C1, r24
 546:	04 5e       	subi	r16, 0xE4	; 228
 548:	1e 4f       	sbci	r17, 0xFE	; 254
 54a:	f8 01       	movw	r30, r16
 54c:	11 82       	std	Z+1, r1	; 0x01
 54e:	10 82       	st	Z, r1
 550:	1f 91       	pop	r17
 552:	0f 91       	pop	r16
 554:	08 95       	ret

00000556 <__cxa_guard_acquire>:
 556:	fc 01       	movw	r30, r24
 558:	20 e0       	ldi	r18, 0x00	; 0
 55a:	30 e0       	ldi	r19, 0x00	; 0
 55c:	80 81       	ld	r24, Z
 55e:	88 23       	and	r24, r24
 560:	11 f4       	brne	.+4      	; 0x566 <__cxa_guard_acquire+0x10>
 562:	21 e0       	ldi	r18, 0x01	; 1
 564:	30 e0       	ldi	r19, 0x00	; 0
 566:	c9 01       	movw	r24, r18
 568:	08 95       	ret

0000056a <__cxa_guard_release>:
 56a:	fc 01       	movw	r30, r24
 56c:	81 e0       	ldi	r24, 0x01	; 1
 56e:	80 83       	st	Z, r24
 570:	08 95       	ret

00000572 <__cxa_guard_abort>:
 572:	08 95       	ret

00000574 <__cxa_pure_virtual>:
 574:	08 95       	ret

00000576 <_GLOBAL__I_rs>:
 576:	82 e5       	ldi	r24, 0x52	; 82
 578:	91 e0       	ldi	r25, 0x01	; 1
 57a:	0e 94 5b 02 	call	0x4b6	; 0x4b6 <_ZN12RSControllerC1Ev>
 57e:	08 95       	ret

00000580 <main>:
 580:	0f 93       	push	r16
 582:	1f 93       	push	r17
 584:	df 93       	push	r29
 586:	cf 93       	push	r28
 588:	cd b7       	in	r28, 0x3d	; 61
 58a:	de b7       	in	r29, 0x3e	; 62
 58c:	68 97       	sbiw	r28, 0x18	; 24
 58e:	0f b6       	in	r0, 0x3f	; 63
 590:	f8 94       	cli
 592:	de bf       	out	0x3e, r29	; 62
 594:	0f be       	out	0x3f, r0	; 63
 596:	cd bf       	out	0x3d, r28	; 61
 598:	84 e4       	ldi	r24, 0x44	; 68
 59a:	91 e0       	ldi	r25, 0x01	; 1
 59c:	9a 83       	std	Y+2, r25	; 0x02
 59e:	89 83       	std	Y+1, r24	; 0x01
 5a0:	0a 96       	adiw	r24, 0x0a	; 10
 5a2:	9c 83       	std	Y+4, r25	; 0x04
 5a4:	8b 83       	std	Y+3, r24	; 0x03
 5a6:	8e 01       	movw	r16, r28
 5a8:	0b 5f       	subi	r16, 0xFB	; 251
 5aa:	1f 4f       	sbci	r17, 0xFF	; 255
 5ac:	c8 01       	movw	r24, r16
 5ae:	0e 94 67 00 	call	0xce	; 0xce <_ZN18ProtocolControllerC1Ev>
 5b2:	84 e5       	ldi	r24, 0x54	; 84
 5b4:	91 e0       	ldi	r25, 0x01	; 1
 5b6:	b8 01       	movw	r22, r16
 5b8:	0e 94 b1 03 	call	0x762	; 0x762 <_ZN8Listener11addListenerEP13ListenerAware>
 5bc:	2f 89       	ldd	r18, Y+23	; 0x17
 5be:	38 8d       	ldd	r19, Y+24	; 0x18
 5c0:	2f 5f       	subi	r18, 0xFF	; 255
 5c2:	3f 4f       	sbci	r19, 0xFF	; 255
 5c4:	f9 01       	movw	r30, r18
 5c6:	ee 0f       	add	r30, r30
 5c8:	ff 1f       	adc	r31, r31
 5ca:	ec 0f       	add	r30, r28
 5cc:	fd 1f       	adc	r31, r29
 5ce:	ce 01       	movw	r24, r28
 5d0:	03 96       	adiw	r24, 0x03	; 3
 5d2:	96 83       	std	Z+6, r25	; 0x06
 5d4:	85 83       	std	Z+5, r24	; 0x05
 5d6:	38 8f       	std	Y+24, r19	; 0x18
 5d8:	2f 8b       	std	Y+23, r18	; 0x17
 5da:	78 94       	sei
 5dc:	8e 01       	movw	r16, r28
 5de:	0f 5f       	subi	r16, 0xFF	; 255
 5e0:	1f 4f       	sbci	r17, 0xFF	; 255
 5e2:	82 e5       	ldi	r24, 0x52	; 82
 5e4:	91 e0       	ldi	r25, 0x01	; 1
 5e6:	0e 94 6b 01 	call	0x2d6	; 0x2d6 <_ZN12RSController6onTickEv>
 5ea:	c8 01       	movw	r24, r16
 5ec:	0e 94 ce 06 	call	0xd9c	; 0xd9c <_ZN11TestCommand6onTickEv>
 5f0:	f8 cf       	rjmp	.-16     	; 0x5e2 <main+0x62>

000005f2 <_ZN15EventController8getEventEv>:
 5f2:	81 e0       	ldi	r24, 0x01	; 1
 5f4:	08 95       	ret

000005f6 <_ZN15EventController18getMultiEventCountEv>:
 5f6:	80 e1       	ldi	r24, 0x10	; 16
 5f8:	08 95       	ret

000005fa <_ZN15EventController12onMultiEventEv>:
 5fa:	08 95       	ret

000005fc <_ZN15EventControllerC2Ev>:
 5fc:	fc 01       	movw	r30, r24
 5fe:	8a e2       	ldi	r24, 0x2A	; 42
 600:	91 e0       	ldi	r25, 0x01	; 1
 602:	91 83       	std	Z+1, r25	; 0x01
 604:	80 83       	st	Z, r24
 606:	13 82       	std	Z+3, r1	; 0x03
 608:	12 82       	std	Z+2, r1	; 0x02
 60a:	14 82       	std	Z+4, r1	; 0x04
 60c:	15 82       	std	Z+5, r1	; 0x05
 60e:	08 95       	ret

00000610 <_ZN15EventControllerC1Ev>:
 610:	fc 01       	movw	r30, r24
 612:	8a e2       	ldi	r24, 0x2A	; 42
 614:	91 e0       	ldi	r25, 0x01	; 1
 616:	91 83       	std	Z+1, r25	; 0x01
 618:	80 83       	st	Z, r24
 61a:	13 82       	std	Z+3, r1	; 0x03
 61c:	12 82       	std	Z+2, r1	; 0x02
 61e:	14 82       	std	Z+4, r1	; 0x04
 620:	15 82       	std	Z+5, r1	; 0x05
 622:	08 95       	ret

00000624 <_ZN15EventController18multiEventOneEventEv>:
 624:	1f 93       	push	r17
 626:	cf 93       	push	r28
 628:	df 93       	push	r29
 62a:	ec 01       	movw	r28, r24
 62c:	1d 81       	ldd	r17, Y+5	; 0x05
 62e:	1f 5f       	subi	r17, 0xFF	; 255
 630:	1d 83       	std	Y+5, r17	; 0x05
 632:	e8 81       	ld	r30, Y
 634:	f9 81       	ldd	r31, Y+1	; 0x01
 636:	02 80       	ldd	r0, Z+2	; 0x02
 638:	f3 81       	ldd	r31, Z+3	; 0x03
 63a:	e0 2d       	mov	r30, r0
 63c:	09 95       	icall
 63e:	18 17       	cp	r17, r24
 640:	61 f4       	brne	.+24     	; 0x65a <_ZN15EventController18multiEventOneEventEv+0x36>
 642:	8e 81       	ldd	r24, Y+6	; 0x06
 644:	88 3c       	cpi	r24, 0xC8	; 200
 646:	48 f4       	brcc	.+18     	; 0x65a <_ZN15EventController18multiEventOneEventEv+0x36>
 648:	e8 81       	ld	r30, Y
 64a:	f9 81       	ldd	r31, Y+1	; 0x01
 64c:	02 84       	ldd	r0, Z+10	; 0x0a
 64e:	f3 85       	ldd	r31, Z+11	; 0x0b
 650:	e0 2d       	mov	r30, r0
 652:	ce 01       	movw	r24, r28
 654:	09 95       	icall
 656:	1d 82       	std	Y+5, r1	; 0x05
 658:	1e 82       	std	Y+6, r1	; 0x06
 65a:	df 91       	pop	r29
 65c:	cf 91       	pop	r28
 65e:	1f 91       	pop	r17
 660:	08 95       	ret

00000662 <_ZN15EventController15multiEventEventEv>:
 662:	fc 01       	movw	r30, r24
 664:	85 81       	ldd	r24, Z+5	; 0x05
 666:	88 23       	and	r24, r24
 668:	19 f0       	breq	.+6      	; 0x670 <_ZN15EventController15multiEventEventEv+0xe>
 66a:	86 81       	ldd	r24, Z+6	; 0x06
 66c:	8f 5f       	subi	r24, 0xFF	; 255
 66e:	86 83       	std	Z+6, r24	; 0x06
 670:	86 81       	ldd	r24, Z+6	; 0x06
 672:	89 3c       	cpi	r24, 0xC9	; 201
 674:	10 f0       	brcs	.+4      	; 0x67a <_ZN15EventController15multiEventEventEv+0x18>
 676:	15 82       	std	Z+5, r1	; 0x05
 678:	16 82       	std	Z+6, r1	; 0x06
 67a:	08 95       	ret

0000067c <_ZN15EventController6onTickEv>:
 67c:	cf 93       	push	r28
 67e:	df 93       	push	r29
 680:	ec 01       	movw	r28, r24
 682:	e8 81       	ld	r30, Y
 684:	f9 81       	ldd	r31, Y+1	; 0x01
 686:	01 90       	ld	r0, Z+
 688:	f0 81       	ld	r31, Z
 68a:	e0 2d       	mov	r30, r0
 68c:	09 95       	icall
 68e:	98 2f       	mov	r25, r24
 690:	81 30       	cpi	r24, 0x01	; 1
 692:	c9 f4       	brne	.+50     	; 0x6c6 <_ZN15EventController6onTickEv+0x4a>
 694:	8b 81       	ldd	r24, Y+3	; 0x03
 696:	88 23       	and	r24, r24
 698:	19 f4       	brne	.+6      	; 0x6a0 <_ZN15EventController6onTickEv+0x24>
 69a:	1a 82       	std	Y+2, r1	; 0x02
 69c:	1c 82       	std	Y+4, r1	; 0x04
 69e:	9b 83       	std	Y+3, r25	; 0x03
 6a0:	8a 81       	ldd	r24, Y+2	; 0x02
 6a2:	8e 31       	cpi	r24, 0x1E	; 30
 6a4:	11 f4       	brne	.+4      	; 0x6aa <_ZN15EventController6onTickEv+0x2e>
 6a6:	81 e0       	ldi	r24, 0x01	; 1
 6a8:	8c 83       	std	Y+4, r24	; 0x04
 6aa:	8c 81       	ldd	r24, Y+4	; 0x04
 6ac:	81 30       	cpi	r24, 0x01	; 1
 6ae:	39 f4       	brne	.+14     	; 0x6be <_ZN15EventController6onTickEv+0x42>
 6b0:	e8 81       	ld	r30, Y
 6b2:	f9 81       	ldd	r31, Y+1	; 0x01
 6b4:	06 80       	ldd	r0, Z+6	; 0x06
 6b6:	f7 81       	ldd	r31, Z+7	; 0x07
 6b8:	e0 2d       	mov	r30, r0
 6ba:	ce 01       	movw	r24, r28
 6bc:	09 95       	icall
 6be:	8a 81       	ldd	r24, Y+2	; 0x02
 6c0:	8f 5f       	subi	r24, 0xFF	; 255
 6c2:	8a 83       	std	Y+2, r24	; 0x02
 6c4:	19 c0       	rjmp	.+50     	; 0x6f8 <_ZN15EventController6onTickEv+0x7c>
 6c6:	8a 81       	ldd	r24, Y+2	; 0x02
 6c8:	88 23       	and	r24, r24
 6ca:	99 f0       	breq	.+38     	; 0x6f2 <_ZN15EventController6onTickEv+0x76>
 6cc:	8c 81       	ldd	r24, Y+4	; 0x04
 6ce:	e8 81       	ld	r30, Y
 6d0:	f9 81       	ldd	r31, Y+1	; 0x01
 6d2:	88 23       	and	r24, r24
 6d4:	49 f4       	brne	.+18     	; 0x6e8 <_ZN15EventController6onTickEv+0x6c>
 6d6:	04 80       	ldd	r0, Z+4	; 0x04
 6d8:	f5 81       	ldd	r31, Z+5	; 0x05
 6da:	e0 2d       	mov	r30, r0
 6dc:	ce 01       	movw	r24, r28
 6de:	09 95       	icall
 6e0:	ce 01       	movw	r24, r28
 6e2:	0e 94 12 03 	call	0x624	; 0x624 <_ZN15EventController18multiEventOneEventEv>
 6e6:	05 c0       	rjmp	.+10     	; 0x6f2 <_ZN15EventController6onTickEv+0x76>
 6e8:	00 84       	ldd	r0, Z+8	; 0x08
 6ea:	f1 85       	ldd	r31, Z+9	; 0x09
 6ec:	e0 2d       	mov	r30, r0
 6ee:	ce 01       	movw	r24, r28
 6f0:	09 95       	icall
 6f2:	1b 82       	std	Y+3, r1	; 0x03
 6f4:	1a 82       	std	Y+2, r1	; 0x02
 6f6:	1c 82       	std	Y+4, r1	; 0x04
 6f8:	ce 01       	movw	r24, r28
 6fa:	0e 94 31 03 	call	0x662	; 0x662 <_ZN15EventController15multiEventEventEv>
 6fe:	df 91       	pop	r29
 700:	cf 91       	pop	r28
 702:	08 95       	ret

00000704 <_ZN8ListenerC2Ev>:
 704:	fc 01       	movw	r30, r24
 706:	11 82       	std	Z+1, r1	; 0x01
 708:	10 82       	st	Z, r1
 70a:	08 95       	ret

0000070c <_ZN8ListenerC1Ev>:
 70c:	fc 01       	movw	r30, r24
 70e:	11 82       	std	Z+1, r1	; 0x01
 710:	10 82       	st	Z, r1
 712:	08 95       	ret

00000714 <_ZN8Listener14removeListenerEP13ListenerAware>:
 714:	cf 93       	push	r28
 716:	df 93       	push	r29
 718:	ec 01       	movw	r28, r24
 71a:	dc 01       	movw	r26, r24
 71c:	20 e0       	ldi	r18, 0x00	; 0
 71e:	30 e0       	ldi	r19, 0x00	; 0
 720:	18 c0       	rjmp	.+48     	; 0x752 <_ZN8Listener14removeListenerEP13ListenerAware+0x3e>
 722:	12 96       	adiw	r26, 0x02	; 2
 724:	8d 91       	ld	r24, X+
 726:	9c 91       	ld	r25, X
 728:	13 97       	sbiw	r26, 0x03	; 3
 72a:	86 17       	cp	r24, r22
 72c:	97 07       	cpc	r25, r23
 72e:	71 f4       	brne	.+28     	; 0x74c <_ZN8Listener14removeListenerEP13ListenerAware+0x38>
 730:	31 97       	sbiw	r30, 0x01	; 1
 732:	f9 83       	std	Y+1, r31	; 0x01
 734:	e8 83       	st	Y, r30
 736:	31 96       	adiw	r30, 0x01	; 1
 738:	ee 0f       	add	r30, r30
 73a:	ff 1f       	adc	r31, r31
 73c:	ec 0f       	add	r30, r28
 73e:	fd 1f       	adc	r31, r29
 740:	80 81       	ld	r24, Z
 742:	91 81       	ldd	r25, Z+1	; 0x01
 744:	13 96       	adiw	r26, 0x03	; 3
 746:	9c 93       	st	X, r25
 748:	8e 93       	st	-X, r24
 74a:	12 97       	sbiw	r26, 0x02	; 2
 74c:	2f 5f       	subi	r18, 0xFF	; 255
 74e:	3f 4f       	sbci	r19, 0xFF	; 255
 750:	12 96       	adiw	r26, 0x02	; 2
 752:	e8 81       	ld	r30, Y
 754:	f9 81       	ldd	r31, Y+1	; 0x01
 756:	2e 17       	cp	r18, r30
 758:	3f 07       	cpc	r19, r31
 75a:	18 f3       	brcs	.-58     	; 0x722 <_ZN8Listener14removeListenerEP13ListenerAware+0xe>
 75c:	df 91       	pop	r29
 75e:	cf 91       	pop	r28
 760:	08 95       	ret

00000762 <_ZN8Listener11addListenerEP13ListenerAware>:
 762:	ef 92       	push	r14
 764:	ff 92       	push	r15
 766:	0f 93       	push	r16
 768:	1f 93       	push	r17
 76a:	8c 01       	movw	r16, r24
 76c:	7b 01       	movw	r14, r22
 76e:	0e 94 8a 03 	call	0x714	; 0x714 <_ZN8Listener14removeListenerEP13ListenerAware>
 772:	f8 01       	movw	r30, r16
 774:	80 81       	ld	r24, Z
 776:	91 81       	ldd	r25, Z+1	; 0x01
 778:	01 96       	adiw	r24, 0x01	; 1
 77a:	fc 01       	movw	r30, r24
 77c:	ee 0f       	add	r30, r30
 77e:	ff 1f       	adc	r31, r31
 780:	e0 0f       	add	r30, r16
 782:	f1 1f       	adc	r31, r17
 784:	f1 82       	std	Z+1, r15	; 0x01
 786:	e0 82       	st	Z, r14
 788:	f8 01       	movw	r30, r16
 78a:	91 83       	std	Z+1, r25	; 0x01
 78c:	80 83       	st	Z, r24
 78e:	1f 91       	pop	r17
 790:	0f 91       	pop	r16
 792:	ff 90       	pop	r15
 794:	ef 90       	pop	r14
 796:	08 95       	ret

00000798 <_ZN8Listener9fireEventEPv>:
 798:	cf 92       	push	r12
 79a:	df 92       	push	r13
 79c:	ef 92       	push	r14
 79e:	ff 92       	push	r15
 7a0:	0f 93       	push	r16
 7a2:	1f 93       	push	r17
 7a4:	cf 93       	push	r28
 7a6:	df 93       	push	r29
 7a8:	7c 01       	movw	r14, r24
 7aa:	6b 01       	movw	r12, r22
 7ac:	8c 01       	movw	r16, r24
 7ae:	c0 e0       	ldi	r28, 0x00	; 0
 7b0:	d0 e0       	ldi	r29, 0x00	; 0
 7b2:	0c c0       	rjmp	.+24     	; 0x7cc <_ZN8Listener9fireEventEPv+0x34>
 7b4:	d8 01       	movw	r26, r16
 7b6:	ed 91       	ld	r30, X+
 7b8:	fc 91       	ld	r31, X
 7ba:	a0 81       	ld	r26, Z
 7bc:	b1 81       	ldd	r27, Z+1	; 0x01
 7be:	2d 91       	ld	r18, X+
 7c0:	3c 91       	ld	r19, X
 7c2:	cf 01       	movw	r24, r30
 7c4:	b6 01       	movw	r22, r12
 7c6:	f9 01       	movw	r30, r18
 7c8:	09 95       	icall
 7ca:	21 96       	adiw	r28, 0x01	; 1
 7cc:	0e 5f       	subi	r16, 0xFE	; 254
 7ce:	1f 4f       	sbci	r17, 0xFF	; 255
 7d0:	f7 01       	movw	r30, r14
 7d2:	80 81       	ld	r24, Z
 7d4:	91 81       	ldd	r25, Z+1	; 0x01
 7d6:	c8 17       	cp	r28, r24
 7d8:	d9 07       	cpc	r29, r25
 7da:	60 f3       	brcs	.-40     	; 0x7b4 <_ZN8Listener9fireEventEPv+0x1c>
 7dc:	df 91       	pop	r29
 7de:	cf 91       	pop	r28
 7e0:	1f 91       	pop	r17
 7e2:	0f 91       	pop	r16
 7e4:	ff 90       	pop	r15
 7e6:	ef 90       	pop	r14
 7e8:	df 90       	pop	r13
 7ea:	cf 90       	pop	r12
 7ec:	08 95       	ret

000007ee <_ZN10RingBufferC2Ev>:
 7ee:	fc 01       	movw	r30, r24
 7f0:	ee 57       	subi	r30, 0x7E	; 126
 7f2:	ff 4f       	sbci	r31, 0xFF	; 255
 7f4:	80 81       	ld	r24, Z
 7f6:	91 81       	ldd	r25, Z+1	; 0x01
 7f8:	92 93       	st	-Z, r25
 7fa:	82 93       	st	-Z, r24
 7fc:	08 95       	ret

000007fe <_ZN10RingBufferC1Ev>:
 7fe:	fc 01       	movw	r30, r24
 800:	ee 57       	subi	r30, 0x7E	; 126
 802:	ff 4f       	sbci	r31, 0xFF	; 255
 804:	80 81       	ld	r24, Z
 806:	91 81       	ldd	r25, Z+1	; 0x01
 808:	92 93       	st	-Z, r25
 80a:	82 93       	st	-Z, r24
 80c:	08 95       	ret

0000080e <_ZN10RingBuffer3addEc>:
 80e:	0f 93       	push	r16
 810:	1f 93       	push	r17
 812:	9c 01       	movw	r18, r24
 814:	46 2f       	mov	r20, r22
 816:	8c 01       	movw	r16, r24
 818:	00 58       	subi	r16, 0x80	; 128
 81a:	1f 4f       	sbci	r17, 0xFF	; 255
 81c:	d8 01       	movw	r26, r16
 81e:	ed 91       	ld	r30, X+
 820:	fc 91       	ld	r31, X
 822:	cf 01       	movw	r24, r30
 824:	01 96       	adiw	r24, 0x01	; 1
 826:	60 e8       	ldi	r22, 0x80	; 128
 828:	70 e0       	ldi	r23, 0x00	; 0
 82a:	0e 94 d9 06 	call	0xdb2	; 0xdb2 <__divmodhi4>
 82e:	bc 01       	movw	r22, r24
 830:	e2 0f       	add	r30, r18
 832:	f3 1f       	adc	r31, r19
 834:	40 83       	st	Z, r20
 836:	f8 01       	movw	r30, r16
 838:	91 83       	std	Z+1, r25	; 0x01
 83a:	80 83       	st	Z, r24
 83c:	f9 01       	movw	r30, r18
 83e:	ee 57       	subi	r30, 0x7E	; 126
 840:	ff 4f       	sbci	r31, 0xFF	; 255
 842:	80 81       	ld	r24, Z
 844:	91 81       	ldd	r25, Z+1	; 0x01
 846:	68 17       	cp	r22, r24
 848:	79 07       	cpc	r23, r25
 84a:	41 f4       	brne	.+16     	; 0x85c <_ZN10RingBuffer3addEc+0x4e>
 84c:	cb 01       	movw	r24, r22
 84e:	01 96       	adiw	r24, 0x01	; 1
 850:	60 e8       	ldi	r22, 0x80	; 128
 852:	70 e0       	ldi	r23, 0x00	; 0
 854:	0e 94 d9 06 	call	0xdb2	; 0xdb2 <__divmodhi4>
 858:	91 83       	std	Z+1, r25	; 0x01
 85a:	80 83       	st	Z, r24
 85c:	1f 91       	pop	r17
 85e:	0f 91       	pop	r16
 860:	08 95       	ret

00000862 <_ZN10RingBuffer3getEv>:
 862:	cf 93       	push	r28
 864:	df 93       	push	r29
 866:	fc 01       	movw	r30, r24
 868:	ec 01       	movw	r28, r24
 86a:	ce 57       	subi	r28, 0x7E	; 126
 86c:	df 4f       	sbci	r29, 0xFF	; 255
 86e:	28 81       	ld	r18, Y
 870:	39 81       	ldd	r19, Y+1	; 0x01
 872:	e0 58       	subi	r30, 0x80	; 128
 874:	ff 4f       	sbci	r31, 0xFF	; 255
 876:	80 81       	ld	r24, Z
 878:	91 81       	ldd	r25, Z+1	; 0x01
 87a:	e0 58       	subi	r30, 0x80	; 128
 87c:	f0 40       	sbci	r31, 0x00	; 0
 87e:	82 17       	cp	r24, r18
 880:	93 07       	cpc	r25, r19
 882:	11 f4       	brne	.+4      	; 0x888 <_ZN10RingBuffer3getEv+0x26>
 884:	4f ef       	ldi	r20, 0xFF	; 255
 886:	0b c0       	rjmp	.+22     	; 0x89e <_ZN10RingBuffer3getEv+0x3c>
 888:	e2 0f       	add	r30, r18
 88a:	f3 1f       	adc	r31, r19
 88c:	40 81       	ld	r20, Z
 88e:	c9 01       	movw	r24, r18
 890:	01 96       	adiw	r24, 0x01	; 1
 892:	60 e8       	ldi	r22, 0x80	; 128
 894:	70 e0       	ldi	r23, 0x00	; 0
 896:	0e 94 d9 06 	call	0xdb2	; 0xdb2 <__divmodhi4>
 89a:	99 83       	std	Y+1, r25	; 0x01
 89c:	88 83       	st	Y, r24
 89e:	84 2f       	mov	r24, r20
 8a0:	df 91       	pop	r29
 8a2:	cf 91       	pop	r28
 8a4:	08 95       	ret

000008a6 <_ZN10RingBuffer5flushEv>:
 8a6:	fc 01       	movw	r30, r24
 8a8:	ee 57       	subi	r30, 0x7E	; 126
 8aa:	ff 4f       	sbci	r31, 0xFF	; 255
 8ac:	80 81       	ld	r24, Z
 8ae:	91 81       	ldd	r25, Z+1	; 0x01
 8b0:	92 93       	st	-Z, r25
 8b2:	82 93       	st	-Z, r24
 8b4:	08 95       	ret

000008b6 <_ZN6Timer0C1Ev>:
 8b6:	0f 93       	push	r16
 8b8:	1f 93       	push	r17
 8ba:	df 93       	push	r29
 8bc:	cf 93       	push	r28
 8be:	cd b7       	in	r28, 0x3d	; 61
 8c0:	de b7       	in	r29, 0x3e	; 62
 8c2:	27 97       	sbiw	r28, 0x07	; 7
 8c4:	0f b6       	in	r0, 0x3f	; 63
 8c6:	f8 94       	cli
 8c8:	de bf       	out	0x3e, r29	; 62
 8ca:	0f be       	out	0x3f, r0	; 63
 8cc:	cd bf       	out	0x3d, r28	; 61
 8ce:	8c 01       	movw	r16, r24
 8d0:	0e 94 e7 05 	call	0xbce	; 0xbce <_ZN12TimerCounterC2Ev>
 8d4:	84 e4       	ldi	r24, 0x44	; 68
 8d6:	90 e0       	ldi	r25, 0x00	; 0
 8d8:	f8 01       	movw	r30, r16
 8da:	92 83       	std	Z+2, r25	; 0x02
 8dc:	81 83       	std	Z+1, r24	; 0x01
 8de:	85 e4       	ldi	r24, 0x45	; 69
 8e0:	90 e0       	ldi	r25, 0x00	; 0
 8e2:	94 83       	std	Z+4, r25	; 0x04
 8e4:	83 83       	std	Z+3, r24	; 0x03
 8e6:	87 e4       	ldi	r24, 0x47	; 71
 8e8:	90 e0       	ldi	r25, 0x00	; 0
 8ea:	90 87       	std	Z+8, r25	; 0x08
 8ec:	87 83       	std	Z+7, r24	; 0x07
 8ee:	88 e4       	ldi	r24, 0x48	; 72
 8f0:	90 e0       	ldi	r25, 0x00	; 0
 8f2:	92 87       	std	Z+10, r25	; 0x0a
 8f4:	81 87       	std	Z+9, r24	; 0x09
 8f6:	86 e4       	ldi	r24, 0x46	; 70
 8f8:	90 e0       	ldi	r25, 0x00	; 0
 8fa:	94 87       	std	Z+12, r25	; 0x0c
 8fc:	83 87       	std	Z+11, r24	; 0x0b
 8fe:	16 bc       	out	0x26, r1	; 38
 900:	ee e6       	ldi	r30, 0x6E	; 110
 902:	f0 e0       	ldi	r31, 0x00	; 0
 904:	80 81       	ld	r24, Z
 906:	81 60       	ori	r24, 0x01	; 1
 908:	80 83       	st	Z, r24
 90a:	ce 01       	movw	r24, r28
 90c:	01 96       	adiw	r24, 0x01	; 1
 90e:	0e 94 fc 05 	call	0xbf8	; 0xbf8 <_ZN12TimerCounterC1Ev>
 912:	27 96       	adiw	r28, 0x07	; 7
 914:	0f b6       	in	r0, 0x3f	; 63
 916:	f8 94       	cli
 918:	de bf       	out	0x3e, r29	; 62
 91a:	0f be       	out	0x3f, r0	; 63
 91c:	cd bf       	out	0x3d, r28	; 61
 91e:	cf 91       	pop	r28
 920:	df 91       	pop	r29
 922:	1f 91       	pop	r17
 924:	0f 91       	pop	r16
 926:	08 95       	ret

00000928 <_ZN6Timer0C2Ev>:
 928:	0f 93       	push	r16
 92a:	1f 93       	push	r17
 92c:	df 93       	push	r29
 92e:	cf 93       	push	r28
 930:	cd b7       	in	r28, 0x3d	; 61
 932:	de b7       	in	r29, 0x3e	; 62
 934:	27 97       	sbiw	r28, 0x07	; 7
 936:	0f b6       	in	r0, 0x3f	; 63
 938:	f8 94       	cli
 93a:	de bf       	out	0x3e, r29	; 62
 93c:	0f be       	out	0x3f, r0	; 63
 93e:	cd bf       	out	0x3d, r28	; 61
 940:	8c 01       	movw	r16, r24
 942:	0e 94 e7 05 	call	0xbce	; 0xbce <_ZN12TimerCounterC2Ev>
 946:	84 e4       	ldi	r24, 0x44	; 68
 948:	90 e0       	ldi	r25, 0x00	; 0
 94a:	f8 01       	movw	r30, r16
 94c:	92 83       	std	Z+2, r25	; 0x02
 94e:	81 83       	std	Z+1, r24	; 0x01
 950:	85 e4       	ldi	r24, 0x45	; 69
 952:	90 e0       	ldi	r25, 0x00	; 0
 954:	94 83       	std	Z+4, r25	; 0x04
 956:	83 83       	std	Z+3, r24	; 0x03
 958:	87 e4       	ldi	r24, 0x47	; 71
 95a:	90 e0       	ldi	r25, 0x00	; 0
 95c:	90 87       	std	Z+8, r25	; 0x08
 95e:	87 83       	std	Z+7, r24	; 0x07
 960:	88 e4       	ldi	r24, 0x48	; 72
 962:	90 e0       	ldi	r25, 0x00	; 0
 964:	92 87       	std	Z+10, r25	; 0x0a
 966:	81 87       	std	Z+9, r24	; 0x09
 968:	86 e4       	ldi	r24, 0x46	; 70
 96a:	90 e0       	ldi	r25, 0x00	; 0
 96c:	94 87       	std	Z+12, r25	; 0x0c
 96e:	83 87       	std	Z+11, r24	; 0x0b
 970:	16 bc       	out	0x26, r1	; 38
 972:	ee e6       	ldi	r30, 0x6E	; 110
 974:	f0 e0       	ldi	r31, 0x00	; 0
 976:	80 81       	ld	r24, Z
 978:	81 60       	ori	r24, 0x01	; 1
 97a:	80 83       	st	Z, r24
 97c:	ce 01       	movw	r24, r28
 97e:	01 96       	adiw	r24, 0x01	; 1
 980:	0e 94 fc 05 	call	0xbf8	; 0xbf8 <_ZN12TimerCounterC1Ev>
 984:	27 96       	adiw	r28, 0x07	; 7
 986:	0f b6       	in	r0, 0x3f	; 63
 988:	f8 94       	cli
 98a:	de bf       	out	0x3e, r29	; 62
 98c:	0f be       	out	0x3f, r0	; 63
 98e:	cd bf       	out	0x3d, r28	; 61
 990:	cf 91       	pop	r28
 992:	df 91       	pop	r29
 994:	1f 91       	pop	r17
 996:	0f 91       	pop	r16
 998:	08 95       	ret

0000099a <_ZN6Timer1C1Ev>:
 99a:	0f 93       	push	r16
 99c:	1f 93       	push	r17
 99e:	df 93       	push	r29
 9a0:	cf 93       	push	r28
 9a2:	cd b7       	in	r28, 0x3d	; 61
 9a4:	de b7       	in	r29, 0x3e	; 62
 9a6:	27 97       	sbiw	r28, 0x07	; 7
 9a8:	0f b6       	in	r0, 0x3f	; 63
 9aa:	f8 94       	cli
 9ac:	de bf       	out	0x3e, r29	; 62
 9ae:	0f be       	out	0x3f, r0	; 63
 9b0:	cd bf       	out	0x3d, r28	; 61
 9b2:	8c 01       	movw	r16, r24
 9b4:	0e 94 e7 05 	call	0xbce	; 0xbce <_ZN12TimerCounterC2Ev>
 9b8:	80 e8       	ldi	r24, 0x80	; 128
 9ba:	90 e0       	ldi	r25, 0x00	; 0
 9bc:	d8 01       	movw	r26, r16
 9be:	12 96       	adiw	r26, 0x02	; 2
 9c0:	9c 93       	st	X, r25
 9c2:	8e 93       	st	-X, r24
 9c4:	11 97       	sbiw	r26, 0x01	; 1
 9c6:	81 e8       	ldi	r24, 0x81	; 129
 9c8:	90 e0       	ldi	r25, 0x00	; 0
 9ca:	14 96       	adiw	r26, 0x04	; 4
 9cc:	9c 93       	st	X, r25
 9ce:	8e 93       	st	-X, r24
 9d0:	13 97       	sbiw	r26, 0x03	; 3
 9d2:	82 e8       	ldi	r24, 0x82	; 130
 9d4:	90 e0       	ldi	r25, 0x00	; 0
 9d6:	16 96       	adiw	r26, 0x06	; 6
 9d8:	9c 93       	st	X, r25
 9da:	8e 93       	st	-X, r24
 9dc:	15 97       	sbiw	r26, 0x05	; 5
 9de:	88 e8       	ldi	r24, 0x88	; 136
 9e0:	90 e0       	ldi	r25, 0x00	; 0
 9e2:	18 96       	adiw	r26, 0x08	; 8
 9e4:	9c 93       	st	X, r25
 9e6:	8e 93       	st	-X, r24
 9e8:	17 97       	sbiw	r26, 0x07	; 7
 9ea:	8a e8       	ldi	r24, 0x8A	; 138
 9ec:	90 e0       	ldi	r25, 0x00	; 0
 9ee:	1a 96       	adiw	r26, 0x0a	; 10
 9f0:	9c 93       	st	X, r25
 9f2:	8e 93       	st	-X, r24
 9f4:	19 97       	sbiw	r26, 0x09	; 9
 9f6:	e4 e8       	ldi	r30, 0x84	; 132
 9f8:	f0 e0       	ldi	r31, 0x00	; 0
 9fa:	1e 96       	adiw	r26, 0x0e	; 14
 9fc:	fc 93       	st	X, r31
 9fe:	ee 93       	st	-X, r30
 a00:	1d 97       	sbiw	r26, 0x0d	; 13
 a02:	11 82       	std	Z+1, r1	; 0x01
 a04:	10 82       	st	Z, r1
 a06:	ef e6       	ldi	r30, 0x6F	; 111
 a08:	f0 e0       	ldi	r31, 0x00	; 0
 a0a:	80 81       	ld	r24, Z
 a0c:	81 60       	ori	r24, 0x01	; 1
 a0e:	80 83       	st	Z, r24
 a10:	ce 01       	movw	r24, r28
 a12:	01 96       	adiw	r24, 0x01	; 1
 a14:	0e 94 fc 05 	call	0xbf8	; 0xbf8 <_ZN12TimerCounterC1Ev>
 a18:	27 96       	adiw	r28, 0x07	; 7
 a1a:	0f b6       	in	r0, 0x3f	; 63
 a1c:	f8 94       	cli
 a1e:	de bf       	out	0x3e, r29	; 62
 a20:	0f be       	out	0x3f, r0	; 63
 a22:	cd bf       	out	0x3d, r28	; 61
 a24:	cf 91       	pop	r28
 a26:	df 91       	pop	r29
 a28:	1f 91       	pop	r17
 a2a:	0f 91       	pop	r16
 a2c:	08 95       	ret

00000a2e <_ZN6Timer1C2Ev>:
 a2e:	0f 93       	push	r16
 a30:	1f 93       	push	r17
 a32:	df 93       	push	r29
 a34:	cf 93       	push	r28
 a36:	cd b7       	in	r28, 0x3d	; 61
 a38:	de b7       	in	r29, 0x3e	; 62
 a3a:	27 97       	sbiw	r28, 0x07	; 7
 a3c:	0f b6       	in	r0, 0x3f	; 63
 a3e:	f8 94       	cli
 a40:	de bf       	out	0x3e, r29	; 62
 a42:	0f be       	out	0x3f, r0	; 63
 a44:	cd bf       	out	0x3d, r28	; 61
 a46:	8c 01       	movw	r16, r24
 a48:	0e 94 e7 05 	call	0xbce	; 0xbce <_ZN12TimerCounterC2Ev>
 a4c:	80 e8       	ldi	r24, 0x80	; 128
 a4e:	90 e0       	ldi	r25, 0x00	; 0
 a50:	d8 01       	movw	r26, r16
 a52:	12 96       	adiw	r26, 0x02	; 2
 a54:	9c 93       	st	X, r25
 a56:	8e 93       	st	-X, r24
 a58:	11 97       	sbiw	r26, 0x01	; 1
 a5a:	81 e8       	ldi	r24, 0x81	; 129
 a5c:	90 e0       	ldi	r25, 0x00	; 0
 a5e:	14 96       	adiw	r26, 0x04	; 4
 a60:	9c 93       	st	X, r25
 a62:	8e 93       	st	-X, r24
 a64:	13 97       	sbiw	r26, 0x03	; 3
 a66:	82 e8       	ldi	r24, 0x82	; 130
 a68:	90 e0       	ldi	r25, 0x00	; 0
 a6a:	16 96       	adiw	r26, 0x06	; 6
 a6c:	9c 93       	st	X, r25
 a6e:	8e 93       	st	-X, r24
 a70:	15 97       	sbiw	r26, 0x05	; 5
 a72:	88 e8       	ldi	r24, 0x88	; 136
 a74:	90 e0       	ldi	r25, 0x00	; 0
 a76:	18 96       	adiw	r26, 0x08	; 8
 a78:	9c 93       	st	X, r25
 a7a:	8e 93       	st	-X, r24
 a7c:	17 97       	sbiw	r26, 0x07	; 7
 a7e:	8a e8       	ldi	r24, 0x8A	; 138
 a80:	90 e0       	ldi	r25, 0x00	; 0
 a82:	1a 96       	adiw	r26, 0x0a	; 10
 a84:	9c 93       	st	X, r25
 a86:	8e 93       	st	-X, r24
 a88:	19 97       	sbiw	r26, 0x09	; 9
 a8a:	e4 e8       	ldi	r30, 0x84	; 132
 a8c:	f0 e0       	ldi	r31, 0x00	; 0
 a8e:	1e 96       	adiw	r26, 0x0e	; 14
 a90:	fc 93       	st	X, r31
 a92:	ee 93       	st	-X, r30
 a94:	1d 97       	sbiw	r26, 0x0d	; 13
 a96:	11 82       	std	Z+1, r1	; 0x01
 a98:	10 82       	st	Z, r1
 a9a:	ef e6       	ldi	r30, 0x6F	; 111
 a9c:	f0 e0       	ldi	r31, 0x00	; 0
 a9e:	80 81       	ld	r24, Z
 aa0:	81 60       	ori	r24, 0x01	; 1
 aa2:	80 83       	st	Z, r24
 aa4:	ce 01       	movw	r24, r28
 aa6:	01 96       	adiw	r24, 0x01	; 1
 aa8:	0e 94 fc 05 	call	0xbf8	; 0xbf8 <_ZN12TimerCounterC1Ev>
 aac:	27 96       	adiw	r28, 0x07	; 7
 aae:	0f b6       	in	r0, 0x3f	; 63
 ab0:	f8 94       	cli
 ab2:	de bf       	out	0x3e, r29	; 62
 ab4:	0f be       	out	0x3f, r0	; 63
 ab6:	cd bf       	out	0x3d, r28	; 61
 ab8:	cf 91       	pop	r28
 aba:	df 91       	pop	r29
 abc:	1f 91       	pop	r17
 abe:	0f 91       	pop	r16
 ac0:	08 95       	ret

00000ac2 <_ZN6Timer2C1Ev>:
 ac2:	0f 93       	push	r16
 ac4:	1f 93       	push	r17
 ac6:	df 93       	push	r29
 ac8:	cf 93       	push	r28
 aca:	cd b7       	in	r28, 0x3d	; 61
 acc:	de b7       	in	r29, 0x3e	; 62
 ace:	27 97       	sbiw	r28, 0x07	; 7
 ad0:	0f b6       	in	r0, 0x3f	; 63
 ad2:	f8 94       	cli
 ad4:	de bf       	out	0x3e, r29	; 62
 ad6:	0f be       	out	0x3f, r0	; 63
 ad8:	cd bf       	out	0x3d, r28	; 61
 ada:	8c 01       	movw	r16, r24
 adc:	0e 94 e7 05 	call	0xbce	; 0xbce <_ZN12TimerCounterC2Ev>
 ae0:	80 eb       	ldi	r24, 0xB0	; 176
 ae2:	90 e0       	ldi	r25, 0x00	; 0
 ae4:	d8 01       	movw	r26, r16
 ae6:	12 96       	adiw	r26, 0x02	; 2
 ae8:	9c 93       	st	X, r25
 aea:	8e 93       	st	-X, r24
 aec:	11 97       	sbiw	r26, 0x01	; 1
 aee:	81 eb       	ldi	r24, 0xB1	; 177
 af0:	90 e0       	ldi	r25, 0x00	; 0
 af2:	14 96       	adiw	r26, 0x04	; 4
 af4:	9c 93       	st	X, r25
 af6:	8e 93       	st	-X, r24
 af8:	13 97       	sbiw	r26, 0x03	; 3
 afa:	83 eb       	ldi	r24, 0xB3	; 179
 afc:	90 e0       	ldi	r25, 0x00	; 0
 afe:	18 96       	adiw	r26, 0x08	; 8
 b00:	9c 93       	st	X, r25
 b02:	8e 93       	st	-X, r24
 b04:	17 97       	sbiw	r26, 0x07	; 7
 b06:	84 eb       	ldi	r24, 0xB4	; 180
 b08:	90 e0       	ldi	r25, 0x00	; 0
 b0a:	1a 96       	adiw	r26, 0x0a	; 10
 b0c:	9c 93       	st	X, r25
 b0e:	8e 93       	st	-X, r24
 b10:	19 97       	sbiw	r26, 0x09	; 9
 b12:	e2 eb       	ldi	r30, 0xB2	; 178
 b14:	f0 e0       	ldi	r31, 0x00	; 0
 b16:	1c 96       	adiw	r26, 0x0c	; 12
 b18:	fc 93       	st	X, r31
 b1a:	ee 93       	st	-X, r30
 b1c:	1b 97       	sbiw	r26, 0x0b	; 11
 b1e:	10 82       	st	Z, r1
 b20:	e0 e7       	ldi	r30, 0x70	; 112
 b22:	f0 e0       	ldi	r31, 0x00	; 0
 b24:	80 81       	ld	r24, Z
 b26:	81 60       	ori	r24, 0x01	; 1
 b28:	80 83       	st	Z, r24
 b2a:	ce 01       	movw	r24, r28
 b2c:	01 96       	adiw	r24, 0x01	; 1
 b2e:	0e 94 fc 05 	call	0xbf8	; 0xbf8 <_ZN12TimerCounterC1Ev>
 b32:	27 96       	adiw	r28, 0x07	; 7
 b34:	0f b6       	in	r0, 0x3f	; 63
 b36:	f8 94       	cli
 b38:	de bf       	out	0x3e, r29	; 62
 b3a:	0f be       	out	0x3f, r0	; 63
 b3c:	cd bf       	out	0x3d, r28	; 61
 b3e:	cf 91       	pop	r28
 b40:	df 91       	pop	r29
 b42:	1f 91       	pop	r17
 b44:	0f 91       	pop	r16
 b46:	08 95       	ret

00000b48 <_ZN6Timer2C2Ev>:
 b48:	0f 93       	push	r16
 b4a:	1f 93       	push	r17
 b4c:	df 93       	push	r29
 b4e:	cf 93       	push	r28
 b50:	cd b7       	in	r28, 0x3d	; 61
 b52:	de b7       	in	r29, 0x3e	; 62
 b54:	27 97       	sbiw	r28, 0x07	; 7
 b56:	0f b6       	in	r0, 0x3f	; 63
 b58:	f8 94       	cli
 b5a:	de bf       	out	0x3e, r29	; 62
 b5c:	0f be       	out	0x3f, r0	; 63
 b5e:	cd bf       	out	0x3d, r28	; 61
 b60:	8c 01       	movw	r16, r24
 b62:	0e 94 e7 05 	call	0xbce	; 0xbce <_ZN12TimerCounterC2Ev>
 b66:	80 eb       	ldi	r24, 0xB0	; 176
 b68:	90 e0       	ldi	r25, 0x00	; 0
 b6a:	d8 01       	movw	r26, r16
 b6c:	12 96       	adiw	r26, 0x02	; 2
 b6e:	9c 93       	st	X, r25
 b70:	8e 93       	st	-X, r24
 b72:	11 97       	sbiw	r26, 0x01	; 1
 b74:	81 eb       	ldi	r24, 0xB1	; 177
 b76:	90 e0       	ldi	r25, 0x00	; 0
 b78:	14 96       	adiw	r26, 0x04	; 4
 b7a:	9c 93       	st	X, r25
 b7c:	8e 93       	st	-X, r24
 b7e:	13 97       	sbiw	r26, 0x03	; 3
 b80:	83 eb       	ldi	r24, 0xB3	; 179
 b82:	90 e0       	ldi	r25, 0x00	; 0
 b84:	18 96       	adiw	r26, 0x08	; 8
 b86:	9c 93       	st	X, r25
 b88:	8e 93       	st	-X, r24
 b8a:	17 97       	sbiw	r26, 0x07	; 7
 b8c:	84 eb       	ldi	r24, 0xB4	; 180
 b8e:	90 e0       	ldi	r25, 0x00	; 0
 b90:	1a 96       	adiw	r26, 0x0a	; 10
 b92:	9c 93       	st	X, r25
 b94:	8e 93       	st	-X, r24
 b96:	19 97       	sbiw	r26, 0x09	; 9
 b98:	e2 eb       	ldi	r30, 0xB2	; 178
 b9a:	f0 e0       	ldi	r31, 0x00	; 0
 b9c:	1c 96       	adiw	r26, 0x0c	; 12
 b9e:	fc 93       	st	X, r31
 ba0:	ee 93       	st	-X, r30
 ba2:	1b 97       	sbiw	r26, 0x0b	; 11
 ba4:	10 82       	st	Z, r1
 ba6:	e0 e7       	ldi	r30, 0x70	; 112
 ba8:	f0 e0       	ldi	r31, 0x00	; 0
 baa:	80 81       	ld	r24, Z
 bac:	81 60       	ori	r24, 0x01	; 1
 bae:	80 83       	st	Z, r24
 bb0:	ce 01       	movw	r24, r28
 bb2:	01 96       	adiw	r24, 0x01	; 1
 bb4:	0e 94 fc 05 	call	0xbf8	; 0xbf8 <_ZN12TimerCounterC1Ev>
 bb8:	27 96       	adiw	r28, 0x07	; 7
 bba:	0f b6       	in	r0, 0x3f	; 63
 bbc:	f8 94       	cli
 bbe:	de bf       	out	0x3e, r29	; 62
 bc0:	0f be       	out	0x3f, r0	; 63
 bc2:	cd bf       	out	0x3d, r28	; 61
 bc4:	cf 91       	pop	r28
 bc6:	df 91       	pop	r29
 bc8:	1f 91       	pop	r17
 bca:	0f 91       	pop	r16
 bcc:	08 95       	ret

00000bce <_ZN12TimerCounterC2Ev>:
 bce:	dc 01       	movw	r26, r24
 bd0:	13 96       	adiw	r26, 0x03	; 3
 bd2:	ed 91       	ld	r30, X+
 bd4:	fc 91       	ld	r31, X
 bd6:	14 97       	sbiw	r26, 0x04	; 4
 bd8:	10 82       	st	Z, r1
 bda:	11 96       	adiw	r26, 0x01	; 1
 bdc:	ed 91       	ld	r30, X+
 bde:	fc 91       	ld	r31, X
 be0:	12 97       	sbiw	r26, 0x02	; 2
 be2:	10 82       	st	Z, r1
 be4:	81 e0       	ldi	r24, 0x01	; 1
 be6:	8c 93       	st	X, r24
 be8:	13 96       	adiw	r26, 0x03	; 3
 bea:	ed 91       	ld	r30, X+
 bec:	fc 91       	ld	r31, X
 bee:	14 97       	sbiw	r26, 0x04	; 4
 bf0:	80 81       	ld	r24, Z
 bf2:	88 7f       	andi	r24, 0xF8	; 248
 bf4:	80 83       	st	Z, r24
 bf6:	08 95       	ret

00000bf8 <_ZN12TimerCounterC1Ev>:
 bf8:	dc 01       	movw	r26, r24
 bfa:	13 96       	adiw	r26, 0x03	; 3
 bfc:	ed 91       	ld	r30, X+
 bfe:	fc 91       	ld	r31, X
 c00:	14 97       	sbiw	r26, 0x04	; 4
 c02:	10 82       	st	Z, r1
 c04:	11 96       	adiw	r26, 0x01	; 1
 c06:	ed 91       	ld	r30, X+
 c08:	fc 91       	ld	r31, X
 c0a:	12 97       	sbiw	r26, 0x02	; 2
 c0c:	10 82       	st	Z, r1
 c0e:	81 e0       	ldi	r24, 0x01	; 1
 c10:	8c 93       	st	X, r24
 c12:	13 96       	adiw	r26, 0x03	; 3
 c14:	ed 91       	ld	r30, X+
 c16:	fc 91       	ld	r31, X
 c18:	14 97       	sbiw	r26, 0x04	; 4
 c1a:	80 81       	ld	r24, Z
 c1c:	88 7f       	andi	r24, 0xF8	; 248
 c1e:	80 83       	st	Z, r24
 c20:	08 95       	ret

00000c22 <_ZN12TimerCounter5startEv>:
 c22:	fc 01       	movw	r30, r24
 c24:	a3 81       	ldd	r26, Z+3	; 0x03
 c26:	b4 81       	ldd	r27, Z+4	; 0x04
 c28:	8c 91       	ld	r24, X
 c2a:	88 7f       	andi	r24, 0xF8	; 248
 c2c:	8c 93       	st	X, r24
 c2e:	a3 81       	ldd	r26, Z+3	; 0x03
 c30:	b4 81       	ldd	r27, Z+4	; 0x04
 c32:	9c 91       	ld	r25, X
 c34:	80 81       	ld	r24, Z
 c36:	87 70       	andi	r24, 0x07	; 7
 c38:	89 2b       	or	r24, r25
 c3a:	8c 93       	st	X, r24
 c3c:	08 95       	ret

00000c3e <_ZN12TimerCounter4stopEv>:
 c3e:	dc 01       	movw	r26, r24
 c40:	13 96       	adiw	r26, 0x03	; 3
 c42:	ed 91       	ld	r30, X+
 c44:	fc 91       	ld	r31, X
 c46:	14 97       	sbiw	r26, 0x04	; 4
 c48:	80 81       	ld	r24, Z
 c4a:	88 7f       	andi	r24, 0xF8	; 248
 c4c:	80 83       	st	Z, r24
 c4e:	08 95       	ret

00000c50 <_ZN12TimerCounter12setPrescalerEc>:
 c50:	fc 01       	movw	r30, r24
 c52:	60 83       	st	Z, r22
 c54:	08 95       	ret

00000c56 <_ZN12TimerCounter13setNormalModeEv>:
 c56:	dc 01       	movw	r26, r24
 c58:	11 96       	adiw	r26, 0x01	; 1
 c5a:	ed 91       	ld	r30, X+
 c5c:	fc 91       	ld	r31, X
 c5e:	12 97       	sbiw	r26, 0x02	; 2
 c60:	80 81       	ld	r24, Z
 c62:	8c 7f       	andi	r24, 0xFC	; 252
 c64:	80 83       	st	Z, r24
 c66:	13 96       	adiw	r26, 0x03	; 3
 c68:	ed 91       	ld	r30, X+
 c6a:	fc 91       	ld	r31, X
 c6c:	14 97       	sbiw	r26, 0x04	; 4
 c6e:	80 81       	ld	r24, Z
 c70:	87 7e       	andi	r24, 0xE7	; 231
 c72:	80 83       	st	Z, r24
 c74:	08 95       	ret

00000c76 <_ZN12TimerCounter10setCtcModeEv>:
 c76:	dc 01       	movw	r26, r24
 c78:	11 96       	adiw	r26, 0x01	; 1
 c7a:	ed 91       	ld	r30, X+
 c7c:	fc 91       	ld	r31, X
 c7e:	12 97       	sbiw	r26, 0x02	; 2
 c80:	80 81       	ld	r24, Z
 c82:	8c 7f       	andi	r24, 0xFC	; 252
 c84:	80 83       	st	Z, r24
 c86:	13 96       	adiw	r26, 0x03	; 3
 c88:	ed 91       	ld	r30, X+
 c8a:	fc 91       	ld	r31, X
 c8c:	14 97       	sbiw	r26, 0x04	; 4
 c8e:	80 81       	ld	r24, Z
 c90:	88 61       	ori	r24, 0x18	; 24
 c92:	80 83       	st	Z, r24
 c94:	08 95       	ret

00000c96 <_ZN12TimerCounter10setPwmModeEv>:
 c96:	dc 01       	movw	r26, r24
 c98:	11 96       	adiw	r26, 0x01	; 1
 c9a:	ed 91       	ld	r30, X+
 c9c:	fc 91       	ld	r31, X
 c9e:	12 97       	sbiw	r26, 0x02	; 2
 ca0:	80 81       	ld	r24, Z
 ca2:	83 60       	ori	r24, 0x03	; 3
 ca4:	80 83       	st	Z, r24
 ca6:	13 96       	adiw	r26, 0x03	; 3
 ca8:	ed 91       	ld	r30, X+
 caa:	fc 91       	ld	r31, X
 cac:	14 97       	sbiw	r26, 0x04	; 4
 cae:	80 81       	ld	r24, Z
 cb0:	87 7e       	andi	r24, 0xE7	; 231
 cb2:	80 83       	st	Z, r24
 cb4:	08 95       	ret

00000cb6 <_ZN12TimerCounter10setPwmModeEh>:
 cb6:	dc 01       	movw	r26, r24
 cb8:	11 96       	adiw	r26, 0x01	; 1
 cba:	ed 91       	ld	r30, X+
 cbc:	fc 91       	ld	r31, X
 cbe:	12 97       	sbiw	r26, 0x02	; 2
 cc0:	80 81       	ld	r24, Z
 cc2:	8c 7f       	andi	r24, 0xFC	; 252
 cc4:	80 83       	st	Z, r24
 cc6:	11 96       	adiw	r26, 0x01	; 1
 cc8:	ed 91       	ld	r30, X+
 cca:	fc 91       	ld	r31, X
 ccc:	12 97       	sbiw	r26, 0x02	; 2
 cce:	80 81       	ld	r24, Z
 cd0:	63 70       	andi	r22, 0x03	; 3
 cd2:	86 2b       	or	r24, r22
 cd4:	80 83       	st	Z, r24
 cd6:	13 96       	adiw	r26, 0x03	; 3
 cd8:	ed 91       	ld	r30, X+
 cda:	fc 91       	ld	r31, X
 cdc:	14 97       	sbiw	r26, 0x04	; 4
 cde:	80 81       	ld	r24, Z
 ce0:	87 7e       	andi	r24, 0xE7	; 231
 ce2:	80 83       	st	Z, r24
 ce4:	08 95       	ret

00000ce6 <_ZN12TimerCounter19outputNotConnectedAEv>:
 ce6:	dc 01       	movw	r26, r24
 ce8:	11 96       	adiw	r26, 0x01	; 1
 cea:	ed 91       	ld	r30, X+
 cec:	fc 91       	ld	r31, X
 cee:	12 97       	sbiw	r26, 0x02	; 2
 cf0:	80 81       	ld	r24, Z
 cf2:	8f 73       	andi	r24, 0x3F	; 63
 cf4:	80 83       	st	Z, r24
 cf6:	08 95       	ret

00000cf8 <_ZN12TimerCounter19outputNotConnectedBEv>:
 cf8:	dc 01       	movw	r26, r24
 cfa:	13 96       	adiw	r26, 0x03	; 3
 cfc:	ed 91       	ld	r30, X+
 cfe:	fc 91       	ld	r31, X
 d00:	14 97       	sbiw	r26, 0x04	; 4
 d02:	80 81       	ld	r24, Z
 d04:	8f 7c       	andi	r24, 0xCF	; 207
 d06:	80 83       	st	Z, r24
 d08:	08 95       	ret

00000d0a <_ZN12TimerCounter16outputNotInvertAEv>:
 d0a:	dc 01       	movw	r26, r24
 d0c:	11 96       	adiw	r26, 0x01	; 1
 d0e:	ed 91       	ld	r30, X+
 d10:	fc 91       	ld	r31, X
 d12:	12 97       	sbiw	r26, 0x02	; 2
 d14:	80 81       	ld	r24, Z
 d16:	8f 73       	andi	r24, 0x3F	; 63
 d18:	80 83       	st	Z, r24
 d1a:	11 96       	adiw	r26, 0x01	; 1
 d1c:	ed 91       	ld	r30, X+
 d1e:	fc 91       	ld	r31, X
 d20:	12 97       	sbiw	r26, 0x02	; 2
 d22:	80 81       	ld	r24, Z
 d24:	80 68       	ori	r24, 0x80	; 128
 d26:	80 83       	st	Z, r24
 d28:	08 95       	ret

00000d2a <_ZN12TimerCounter16outputNotInvertBEv>:
 d2a:	dc 01       	movw	r26, r24
 d2c:	11 96       	adiw	r26, 0x01	; 1
 d2e:	ed 91       	ld	r30, X+
 d30:	fc 91       	ld	r31, X
 d32:	12 97       	sbiw	r26, 0x02	; 2
 d34:	80 81       	ld	r24, Z
 d36:	8f 7c       	andi	r24, 0xCF	; 207
 d38:	80 83       	st	Z, r24
 d3a:	11 96       	adiw	r26, 0x01	; 1
 d3c:	ed 91       	ld	r30, X+
 d3e:	fc 91       	ld	r31, X
 d40:	12 97       	sbiw	r26, 0x02	; 2
 d42:	80 81       	ld	r24, Z
 d44:	80 83       	st	Z, r24
 d46:	08 95       	ret

00000d48 <_ZN12TimerCounter13outputInvertAEv>:
 d48:	dc 01       	movw	r26, r24
 d4a:	11 96       	adiw	r26, 0x01	; 1
 d4c:	ed 91       	ld	r30, X+
 d4e:	fc 91       	ld	r31, X
 d50:	12 97       	sbiw	r26, 0x02	; 2
 d52:	80 81       	ld	r24, Z
 d54:	8f 73       	andi	r24, 0x3F	; 63
 d56:	80 83       	st	Z, r24
 d58:	11 96       	adiw	r26, 0x01	; 1
 d5a:	ed 91       	ld	r30, X+
 d5c:	fc 91       	ld	r31, X
 d5e:	12 97       	sbiw	r26, 0x02	; 2
 d60:	80 81       	ld	r24, Z
 d62:	80 6c       	ori	r24, 0xC0	; 192
 d64:	80 83       	st	Z, r24
 d66:	08 95       	ret

00000d68 <_ZN12TimerCounter13outputInvertBEv>:
 d68:	dc 01       	movw	r26, r24
 d6a:	11 96       	adiw	r26, 0x01	; 1
 d6c:	ed 91       	ld	r30, X+
 d6e:	fc 91       	ld	r31, X
 d70:	12 97       	sbiw	r26, 0x02	; 2
 d72:	80 81       	ld	r24, Z
 d74:	8f 7c       	andi	r24, 0xCF	; 207
 d76:	80 83       	st	Z, r24
 d78:	11 96       	adiw	r26, 0x01	; 1
 d7a:	ed 91       	ld	r30, X+
 d7c:	fc 91       	ld	r31, X
 d7e:	12 97       	sbiw	r26, 0x02	; 2
 d80:	80 81       	ld	r24, Z
 d82:	80 63       	ori	r24, 0x30	; 48
 d84:	80 83       	st	Z, r24
 d86:	08 95       	ret

00000d88 <_ZThn2_N11TestCommand13getTargetNameEv>:
 d88:	02 97       	sbiw	r24, 0x02	; 2
 d8a:	0e 94 c8 06 	call	0xd90	; 0xd90 <_ZN11TestCommand13getTargetNameEv>
 d8e:	08 95       	ret

00000d90 <_ZN11TestCommand13getTargetNameEv>:
 d90:	88 e5       	ldi	r24, 0x58	; 88
 d92:	08 95       	ret

00000d94 <_ZN11TestCommand4testEii>:
 d94:	46 0f       	add	r20, r22
 d96:	57 1f       	adc	r21, r23
 d98:	ca 01       	movw	r24, r20
 d9a:	08 95       	ret

00000d9c <_ZN11TestCommand6onTickEv>:
 d9c:	08 95       	ret

00000d9e <_ZThn2_N11TestCommand9serializeEPcS0_>:
 d9e:	02 97       	sbiw	r24, 0x02	; 2
 da0:	0e 94 d3 06 	call	0xda6	; 0xda6 <_ZN11TestCommand9serializeEPcS0_>
 da4:	08 95       	ret

00000da6 <_ZN11TestCommand9serializeEPcS0_>:
 da6:	ca 01       	movw	r24, r20
 da8:	66 e3       	ldi	r22, 0x36	; 54
 daa:	71 e0       	ldi	r23, 0x01	; 1
 dac:	0e 94 06 07 	call	0xe0c	; 0xe0c <strcpy>
 db0:	08 95       	ret

00000db2 <__divmodhi4>:
 db2:	97 fb       	bst	r25, 7
 db4:	09 2e       	mov	r0, r25
 db6:	07 26       	eor	r0, r23
 db8:	0a d0       	rcall	.+20     	; 0xdce <__divmodhi4_neg1>
 dba:	77 fd       	sbrc	r23, 7
 dbc:	04 d0       	rcall	.+8      	; 0xdc6 <__divmodhi4_neg2>
 dbe:	0c d0       	rcall	.+24     	; 0xdd8 <__udivmodhi4>
 dc0:	06 d0       	rcall	.+12     	; 0xdce <__divmodhi4_neg1>
 dc2:	00 20       	and	r0, r0
 dc4:	1a f4       	brpl	.+6      	; 0xdcc <__divmodhi4_exit>

00000dc6 <__divmodhi4_neg2>:
 dc6:	70 95       	com	r23
 dc8:	61 95       	neg	r22
 dca:	7f 4f       	sbci	r23, 0xFF	; 255

00000dcc <__divmodhi4_exit>:
 dcc:	08 95       	ret

00000dce <__divmodhi4_neg1>:
 dce:	f6 f7       	brtc	.-4      	; 0xdcc <__divmodhi4_exit>
 dd0:	90 95       	com	r25
 dd2:	81 95       	neg	r24
 dd4:	9f 4f       	sbci	r25, 0xFF	; 255
 dd6:	08 95       	ret

00000dd8 <__udivmodhi4>:
 dd8:	aa 1b       	sub	r26, r26
 dda:	bb 1b       	sub	r27, r27
 ddc:	51 e1       	ldi	r21, 0x11	; 17
 dde:	07 c0       	rjmp	.+14     	; 0xdee <__udivmodhi4_ep>

00000de0 <__udivmodhi4_loop>:
 de0:	aa 1f       	adc	r26, r26
 de2:	bb 1f       	adc	r27, r27
 de4:	a6 17       	cp	r26, r22
 de6:	b7 07       	cpc	r27, r23
 de8:	10 f0       	brcs	.+4      	; 0xdee <__udivmodhi4_ep>
 dea:	a6 1b       	sub	r26, r22
 dec:	b7 0b       	sbc	r27, r23

00000dee <__udivmodhi4_ep>:
 dee:	88 1f       	adc	r24, r24
 df0:	99 1f       	adc	r25, r25
 df2:	5a 95       	dec	r21
 df4:	a9 f7       	brne	.-22     	; 0xde0 <__udivmodhi4_loop>
 df6:	80 95       	com	r24
 df8:	90 95       	com	r25
 dfa:	bc 01       	movw	r22, r24
 dfc:	cd 01       	movw	r24, r26
 dfe:	08 95       	ret

00000e00 <__tablejump2__>:
 e00:	ee 0f       	add	r30, r30
 e02:	ff 1f       	adc	r31, r31

00000e04 <__tablejump__>:
 e04:	05 90       	lpm	r0, Z+
 e06:	f4 91       	lpm	r31, Z+
 e08:	e0 2d       	mov	r30, r0
 e0a:	09 94       	ijmp

00000e0c <strcpy>:
 e0c:	fb 01       	movw	r30, r22
 e0e:	dc 01       	movw	r26, r24
 e10:	01 90       	ld	r0, Z+
 e12:	0d 92       	st	X+, r0
 e14:	00 20       	and	r0, r0
 e16:	e1 f7       	brne	.-8      	; 0xe10 <strcpy+0x4>
 e18:	08 95       	ret

00000e1a <_exit>:
 e1a:	f8 94       	cli

00000e1c <__stop_program>:
 e1c:	ff cf       	rjmp	.-2      	; 0xe1c <__stop_program>
