
JATmegaC.elf:     file format elf32-avr

Sections:
Idx Name          Size      VMA       LMA       File off  Algn
  0 .data         00000168  00800100  00002746  000027da  2**0
                  CONTENTS, ALLOC, LOAD, DATA
  1 .text         00002746  00000000  00000000  00000094  2**1
                  CONTENTS, ALLOC, LOAD, READONLY, CODE
  2 .bss          0000011c  00800268  00800268  00002942  2**0
                  ALLOC
  3 .debug_aranges 000001c0  00000000  00000000  00002942  2**0
                  CONTENTS, READONLY, DEBUGGING
  4 .debug_pubnames 00000214  00000000  00000000  00002b02  2**0
                  CONTENTS, READONLY, DEBUGGING
  5 .debug_info   00002612  00000000  00000000  00002d16  2**0
                  CONTENTS, READONLY, DEBUGGING
  6 .debug_abbrev 000014ce  00000000  00000000  00005328  2**0
                  CONTENTS, READONLY, DEBUGGING
  7 .debug_line   0000130b  00000000  00000000  000067f6  2**0
                  CONTENTS, READONLY, DEBUGGING
  8 .debug_frame  000001e0  00000000  00000000  00007b04  2**2
                  CONTENTS, READONLY, DEBUGGING
  9 .debug_str    00000307  00000000  00000000  00007ce4  2**0
                  CONTENTS, READONLY, DEBUGGING
 10 .debug_loc    00000a1a  00000000  00000000  00007feb  2**0
                  CONTENTS, READONLY, DEBUGGING
 11 .debug_ranges 00000050  00000000  00000000  00008a05  2**0
                  CONTENTS, READONLY, DEBUGGING

Disassembly of section .text:

00000000 <__vectors>:
       0:	0c 94 35 00 	jmp	0x6a	; 0x6a <__ctors_end>
       4:	0c 94 5d 00 	jmp	0xba	; 0xba <__bad_interrupt>
       8:	0c 94 5d 00 	jmp	0xba	; 0xba <__bad_interrupt>
       c:	0c 94 5d 00 	jmp	0xba	; 0xba <__bad_interrupt>
      10:	0c 94 5d 00 	jmp	0xba	; 0xba <__bad_interrupt>
      14:	0c 94 5d 00 	jmp	0xba	; 0xba <__bad_interrupt>
      18:	0c 94 5d 00 	jmp	0xba	; 0xba <__bad_interrupt>
      1c:	0c 94 5d 00 	jmp	0xba	; 0xba <__bad_interrupt>
      20:	0c 94 5d 00 	jmp	0xba	; 0xba <__bad_interrupt>
      24:	0c 94 5d 00 	jmp	0xba	; 0xba <__bad_interrupt>
      28:	0c 94 5d 00 	jmp	0xba	; 0xba <__bad_interrupt>
      2c:	0c 94 5d 00 	jmp	0xba	; 0xba <__bad_interrupt>
      30:	0c 94 5d 00 	jmp	0xba	; 0xba <__bad_interrupt>
      34:	0c 94 5d 00 	jmp	0xba	; 0xba <__bad_interrupt>
      38:	0c 94 5d 00 	jmp	0xba	; 0xba <__bad_interrupt>
      3c:	0c 94 5d 00 	jmp	0xba	; 0xba <__bad_interrupt>
      40:	0c 94 5d 00 	jmp	0xba	; 0xba <__bad_interrupt>
      44:	0c 94 5d 00 	jmp	0xba	; 0xba <__bad_interrupt>
      48:	0c 94 ce 01 	jmp	0x39c	; 0x39c <__vector_18>
      4c:	0c 94 5d 00 	jmp	0xba	; 0xba <__bad_interrupt>
      50:	0c 94 2e 01 	jmp	0x25c	; 0x25c <__vector_20>
      54:	0c 94 5d 00 	jmp	0xba	; 0xba <__bad_interrupt>
      58:	0c 94 5d 00 	jmp	0xba	; 0xba <__bad_interrupt>
      5c:	0c 94 5d 00 	jmp	0xba	; 0xba <__bad_interrupt>
      60:	0c 94 5d 00 	jmp	0xba	; 0xba <__bad_interrupt>
      64:	0c 94 5d 00 	jmp	0xba	; 0xba <__bad_interrupt>

00000068 <__ctors_start>:
      68:	9c 02       	muls	r25, r28

0000006a <__ctors_end>:
      6a:	11 24       	eor	r1, r1
      6c:	1f be       	out	0x3f, r1	; 63
      6e:	cf ef       	ldi	r28, 0xFF	; 255
      70:	d4 e0       	ldi	r29, 0x04	; 4
      72:	de bf       	out	0x3e, r29	; 62
      74:	cd bf       	out	0x3d, r28	; 61

00000076 <__do_copy_data>:
      76:	12 e0       	ldi	r17, 0x02	; 2
      78:	a0 e0       	ldi	r26, 0x00	; 0
      7a:	b1 e0       	ldi	r27, 0x01	; 1
      7c:	e6 e4       	ldi	r30, 0x46	; 70
      7e:	f7 e2       	ldi	r31, 0x27	; 39
      80:	02 c0       	rjmp	.+4      	; 0x86 <.do_copy_data_start>

00000082 <.do_copy_data_loop>:
      82:	05 90       	lpm	r0, Z+
      84:	0d 92       	st	X+, r0

00000086 <.do_copy_data_start>:
      86:	a8 36       	cpi	r26, 0x68	; 104
      88:	b1 07       	cpc	r27, r17
      8a:	d9 f7       	brne	.-10     	; 0x82 <.do_copy_data_loop>

0000008c <__do_clear_bss>:
      8c:	13 e0       	ldi	r17, 0x03	; 3
      8e:	a8 e6       	ldi	r26, 0x68	; 104
      90:	b2 e0       	ldi	r27, 0x02	; 2
      92:	01 c0       	rjmp	.+2      	; 0x96 <.do_clear_bss_start>

00000094 <.do_clear_bss_loop>:
      94:	1d 92       	st	X+, r1

00000096 <.do_clear_bss_start>:
      96:	a4 38       	cpi	r26, 0x84	; 132
      98:	b1 07       	cpc	r27, r17
      9a:	e1 f7       	brne	.-8      	; 0x94 <.do_clear_bss_loop>

0000009c <__do_global_ctors>:
      9c:	10 e0       	ldi	r17, 0x00	; 0
      9e:	ca e6       	ldi	r28, 0x6A	; 106
      a0:	d0 e0       	ldi	r29, 0x00	; 0
      a2:	04 c0       	rjmp	.+8      	; 0xac <.do_global_ctors_start>

000000a4 <.do_global_ctors_loop>:
      a4:	22 97       	sbiw	r28, 0x02	; 2
      a6:	fe 01       	movw	r30, r28
      a8:	0e 94 2b 12 	call	0x2456	; 0x2456 <__tablejump__>

000000ac <.do_global_ctors_start>:
      ac:	c8 36       	cpi	r28, 0x68	; 104
      ae:	d1 07       	cpc	r29, r17
      b0:	c9 f7       	brne	.-14     	; 0xa4 <.do_global_ctors_loop>
      b2:	0e 94 a1 02 	call	0x542	; 0x542 <main>
      b6:	0c 94 a1 13 	jmp	0x2742	; 0x2742 <_exit>

000000ba <__bad_interrupt>:
      ba:	0c 94 00 00 	jmp	0	; 0x0 <__vectors>

000000be <_ZN18ProtocolControllerC2Ev>:
      be:	fc 01       	movw	r30, r24
      c0:	84 e0       	ldi	r24, 0x04	; 4
      c2:	91 e0       	ldi	r25, 0x01	; 1
      c4:	91 83       	std	Z+1, r25	; 0x01
      c6:	80 83       	st	Z, r24
      c8:	12 8a       	std	Z+18, r1	; 0x12
      ca:	08 95       	ret

000000cc <_ZN18ProtocolControllerC1Ev>:
      cc:	fc 01       	movw	r30, r24
      ce:	84 e0       	ldi	r24, 0x04	; 4
      d0:	91 e0       	ldi	r25, 0x01	; 1
      d2:	91 83       	std	Z+1, r25	; 0x01
      d4:	80 83       	st	Z, r24
      d6:	12 8a       	std	Z+18, r1	; 0x12
      d8:	08 95       	ret

000000da <_ZN18ProtocolController19removeProtocolFrameEPc>:
      da:	90 e0       	ldi	r25, 0x00	; 0
      dc:	03 c0       	rjmp	.+6      	; 0xe4 <_ZN18ProtocolController19removeProtocolFrameEPc+0xa>
      de:	82 81       	ldd	r24, Z+2	; 0x02
      e0:	80 83       	st	Z, r24
      e2:	9f 5f       	subi	r25, 0xFF	; 255
      e4:	fb 01       	movw	r30, r22
      e6:	e9 0f       	add	r30, r25
      e8:	f1 1d       	adc	r31, r1
      ea:	80 81       	ld	r24, Z
      ec:	88 23       	and	r24, r24
      ee:	b9 f7       	brne	.-18     	; 0xde <_ZN18ProtocolController19removeProtocolFrameEPc+0x4>
      f0:	10 82       	st	Z, r1
      f2:	08 95       	ret

000000f4 <_ZN18ProtocolController16addProtocolFrameEPccc>:
      f4:	db 01       	movw	r26, r22
      f6:	62 2f       	mov	r22, r18
      f8:	5a 2f       	mov	r21, r26
      fa:	fd 01       	movw	r30, r26
      fc:	9e 2f       	mov	r25, r30
      fe:	95 1b       	sub	r25, r21
     100:	81 91       	ld	r24, Z+
     102:	88 23       	and	r24, r24
     104:	d9 f7       	brne	.-10     	; 0xfc <_ZN18ProtocolController16addProtocolFrameEPccc+0x8>
     106:	e9 2f       	mov	r30, r25
     108:	ff 27       	eor	r31, r31
     10a:	e7 fd       	sbrc	r30, 7
     10c:	f0 95       	com	r31
     10e:	ea 0f       	add	r30, r26
     110:	fb 1f       	adc	r31, r27
     112:	80 81       	ld	r24, Z
     114:	82 83       	std	Z+2, r24	; 0x02
     116:	91 50       	subi	r25, 0x01	; 1
     118:	31 97       	sbiw	r30, 0x01	; 1
     11a:	9f 3f       	cpi	r25, 0xFF	; 255
     11c:	d1 f7       	brne	.-12     	; 0x112 <_ZN18ProtocolController16addProtocolFrameEPccc+0x1e>
     11e:	4c 93       	st	X, r20
     120:	11 96       	adiw	r26, 0x01	; 1
     122:	6c 93       	st	X, r22
     124:	08 95       	ret

00000126 <_ZN18ProtocolController7onEventEPv>:
     126:	bf 92       	push	r11
     128:	cf 92       	push	r12
     12a:	df 92       	push	r13
     12c:	ef 92       	push	r14
     12e:	ff 92       	push	r15
     130:	0f 93       	push	r16
     132:	1f 93       	push	r17
     134:	df 93       	push	r29
     136:	cf 93       	push	r28
     138:	cd b7       	in	r28, 0x3d	; 61
     13a:	de b7       	in	r29, 0x3e	; 62
     13c:	c0 5f       	subi	r28, 0xF0	; 240
     13e:	d0 40       	sbci	r29, 0x00	; 0
     140:	0f b6       	in	r0, 0x3f	; 63
     142:	f8 94       	cli
     144:	de bf       	out	0x3e, r29	; 62
     146:	0f be       	out	0x3f, r0	; 63
     148:	cd bf       	out	0x3d, r28	; 61
     14a:	6c 01       	movw	r12, r24
     14c:	db 01       	movw	r26, r22
     14e:	90 e0       	ldi	r25, 0x00	; 0
     150:	01 c0       	rjmp	.+2      	; 0x154 <_ZN18ProtocolController7onEventEPv+0x2e>
     152:	9f 5f       	subi	r25, 0xFF	; 255
     154:	fd 01       	movw	r30, r26
     156:	e9 0f       	add	r30, r25
     158:	f1 1d       	adc	r31, r1
     15a:	80 81       	ld	r24, Z
     15c:	88 23       	and	r24, r24
     15e:	c9 f7       	brne	.-14     	; 0x152 <_ZN18ProtocolController7onEventEPv+0x2c>
     160:	93 30       	cpi	r25, 0x03	; 3
     162:	08 f4       	brcc	.+2      	; 0x166 <_ZN18ProtocolController7onEventEPv+0x40>
     164:	50 c0       	rjmp	.+160    	; 0x206 <_ZN18ProtocolController7onEventEPv+0xe0>
     166:	ec 90       	ld	r14, X
     168:	11 96       	adiw	r26, 0x01	; 1
     16a:	bc 90       	ld	r11, X
     16c:	11 97       	sbiw	r26, 0x01	; 1
     16e:	19 82       	std	Y+1, r1	; 0x01
     170:	fe 01       	movw	r30, r28
     172:	e7 58       	subi	r30, 0x87	; 135
     174:	ff 4f       	sbci	r31, 0xFF	; 255
     176:	10 82       	st	Z, r1
     178:	8e 01       	movw	r16, r28
     17a:	0f 5f       	subi	r16, 0xFF	; 255
     17c:	1f 4f       	sbci	r17, 0xFF	; 255
     17e:	c8 01       	movw	r24, r16
     180:	bd 01       	movw	r22, r26
     182:	0e 94 3f 13 	call	0x267e	; 0x267e <strcpy>
     186:	c6 01       	movw	r24, r12
     188:	b8 01       	movw	r22, r16
     18a:	0e 94 6d 00 	call	0xda	; 0xda <_ZN18ProtocolController19removeProtocolFrameEPc>
     18e:	ff 24       	eor	r15, r15
     190:	35 c0       	rjmp	.+106    	; 0x1fc <_ZN18ProtocolController7onEventEPv+0xd6>
     192:	0f 2d       	mov	r16, r15
     194:	10 e0       	ldi	r17, 0x00	; 0
     196:	0f 5f       	subi	r16, 0xFF	; 255
     198:	1f 4f       	sbci	r17, 0xFF	; 255
     19a:	00 0f       	add	r16, r16
     19c:	11 1f       	adc	r17, r17
     19e:	0c 0d       	add	r16, r12
     1a0:	1d 1d       	adc	r17, r13
     1a2:	d8 01       	movw	r26, r16
     1a4:	ed 91       	ld	r30, X+
     1a6:	fc 91       	ld	r31, X
     1a8:	a0 81       	ld	r26, Z
     1aa:	b1 81       	ldd	r27, Z+1	; 0x01
     1ac:	12 96       	adiw	r26, 0x02	; 2
     1ae:	2d 91       	ld	r18, X+
     1b0:	3c 91       	ld	r19, X
     1b2:	13 97       	sbiw	r26, 0x03	; 3
     1b4:	cf 01       	movw	r24, r30
     1b6:	f9 01       	movw	r30, r18
     1b8:	09 95       	icall
     1ba:	8e 15       	cp	r24, r14
     1bc:	f1 f4       	brne	.+60     	; 0x1fa <_ZN18ProtocolController7onEventEPv+0xd4>
     1be:	f8 01       	movw	r30, r16
     1c0:	a0 81       	ld	r26, Z
     1c2:	b1 81       	ldd	r27, Z+1	; 0x01
     1c4:	ed 91       	ld	r30, X+
     1c6:	fc 91       	ld	r31, X
     1c8:	11 97       	sbiw	r26, 0x01	; 1
     1ca:	8e 01       	movw	r16, r28
     1cc:	07 58       	subi	r16, 0x87	; 135
     1ce:	1f 4f       	sbci	r17, 0xFF	; 255
     1d0:	01 90       	ld	r0, Z+
     1d2:	f0 81       	ld	r31, Z
     1d4:	e0 2d       	mov	r30, r0
     1d6:	cd 01       	movw	r24, r26
     1d8:	be 01       	movw	r22, r28
     1da:	6f 5f       	subi	r22, 0xFF	; 255
     1dc:	7f 4f       	sbci	r23, 0xFF	; 255
     1de:	a8 01       	movw	r20, r16
     1e0:	09 95       	icall
     1e2:	c6 01       	movw	r24, r12
     1e4:	b8 01       	movw	r22, r16
     1e6:	4e 2d       	mov	r20, r14
     1e8:	2b 2d       	mov	r18, r11
     1ea:	0e 94 7a 00 	call	0xf4	; 0xf4 <_ZN18ProtocolController16addProtocolFrameEPccc>
     1ee:	88 e6       	ldi	r24, 0x68	; 104
     1f0:	92 e0       	ldi	r25, 0x02	; 2
     1f2:	b8 01       	movw	r22, r16
     1f4:	0e 94 f4 01 	call	0x3e8	; 0x3e8 <_ZN12RSController8sendLineEPc>
     1f8:	06 c0       	rjmp	.+12     	; 0x206 <_ZN18ProtocolController7onEventEPv+0xe0>
     1fa:	f3 94       	inc	r15
     1fc:	d6 01       	movw	r26, r12
     1fe:	52 96       	adiw	r26, 0x12	; 18
     200:	8c 91       	ld	r24, X
     202:	f8 16       	cp	r15, r24
     204:	30 f2       	brcs	.-116    	; 0x192 <_ZN18ProtocolController7onEventEPv+0x6c>
     206:	c0 51       	subi	r28, 0x10	; 16
     208:	df 4f       	sbci	r29, 0xFF	; 255
     20a:	0f b6       	in	r0, 0x3f	; 63
     20c:	f8 94       	cli
     20e:	de bf       	out	0x3e, r29	; 62
     210:	0f be       	out	0x3f, r0	; 63
     212:	cd bf       	out	0x3d, r28	; 61
     214:	cf 91       	pop	r28
     216:	df 91       	pop	r29
     218:	1f 91       	pop	r17
     21a:	0f 91       	pop	r16
     21c:	ff 90       	pop	r15
     21e:	ef 90       	pop	r14
     220:	df 90       	pop	r13
     222:	cf 90       	pop	r12
     224:	bf 90       	pop	r11
     226:	08 95       	ret

00000228 <_ZN12RSController9usartInitEh>:
     228:	70 e0       	ldi	r23, 0x00	; 0
     22a:	70 93 c5 00 	sts	0x00C5, r23
     22e:	60 93 c4 00 	sts	0x00C4, r22
     232:	86 e0       	ldi	r24, 0x06	; 6
     234:	80 93 c2 00 	sts	0x00C2, r24
     238:	88 ed       	ldi	r24, 0xD8	; 216
     23a:	80 93 c1 00 	sts	0x00C1, r24
     23e:	08 95       	ret

00000240 <_ZN12RSController4onTxEv>:
     240:	9c 01       	movw	r18, r24
     242:	80 91 c0 00 	lds	r24, 0x00C0
     246:	85 ff       	sbrs	r24, 5
     248:	08 c0       	rjmp	.+16     	; 0x25a <_ZN12RSController4onTxEv+0x1a>
     24a:	c9 01       	movw	r24, r18
     24c:	43 96       	adiw	r24, 0x13	; 19
     24e:	0e 94 ef 03 	call	0x7de	; 0x7de <_ZN10RingBuffer3getEv>
     252:	8f 3f       	cpi	r24, 0xFF	; 255
     254:	11 f0       	breq	.+4      	; 0x25a <_ZN12RSController4onTxEv+0x1a>
     256:	80 93 c6 00 	sts	0x00C6, r24
     25a:	08 95       	ret

0000025c <__vector_20>:
     25c:	1f 92       	push	r1
     25e:	0f 92       	push	r0
     260:	0f b6       	in	r0, 0x3f	; 63
     262:	0f 92       	push	r0
     264:	11 24       	eor	r1, r1
     266:	2f 93       	push	r18
     268:	3f 93       	push	r19
     26a:	4f 93       	push	r20
     26c:	5f 93       	push	r21
     26e:	6f 93       	push	r22
     270:	7f 93       	push	r23
     272:	8f 93       	push	r24
     274:	9f 93       	push	r25
     276:	af 93       	push	r26
     278:	bf 93       	push	r27
     27a:	ef 93       	push	r30
     27c:	ff 93       	push	r31
     27e:	88 e6       	ldi	r24, 0x68	; 104
     280:	92 e0       	ldi	r25, 0x02	; 2
     282:	0e 94 20 01 	call	0x240	; 0x240 <_ZN12RSController4onTxEv>
     286:	ff 91       	pop	r31
     288:	ef 91       	pop	r30
     28a:	bf 91       	pop	r27
     28c:	af 91       	pop	r26
     28e:	9f 91       	pop	r25
     290:	8f 91       	pop	r24
     292:	7f 91       	pop	r23
     294:	6f 91       	pop	r22
     296:	5f 91       	pop	r21
     298:	4f 91       	pop	r20
     29a:	3f 91       	pop	r19
     29c:	2f 91       	pop	r18
     29e:	0f 90       	pop	r0
     2a0:	0f be       	out	0x3f, r0	; 63
     2a2:	0f 90       	pop	r0
     2a4:	1f 90       	pop	r1
     2a6:	18 95       	reti

000002a8 <_ZN12RSController6onTickEv>:
     2a8:	af 92       	push	r10
     2aa:	bf 92       	push	r11
     2ac:	cf 92       	push	r12
     2ae:	df 92       	push	r13
     2b0:	ef 92       	push	r14
     2b2:	ff 92       	push	r15
     2b4:	0f 93       	push	r16
     2b6:	df 93       	push	r29
     2b8:	cf 93       	push	r28
     2ba:	cd b7       	in	r28, 0x3d	; 61
     2bc:	de b7       	in	r29, 0x3e	; 62
     2be:	c0 58       	subi	r28, 0x80	; 128
     2c0:	d0 40       	sbci	r29, 0x00	; 0
     2c2:	0f b6       	in	r0, 0x3f	; 63
     2c4:	f8 94       	cli
     2c6:	de bf       	out	0x3e, r29	; 62
     2c8:	0f be       	out	0x3f, r0	; 63
     2ca:	cd bf       	out	0x3d, r28	; 61
     2cc:	7c 01       	movw	r14, r24
     2ce:	fc 01       	movw	r30, r24
     2d0:	e9 5e       	subi	r30, 0xE9	; 233
     2d2:	fe 4f       	sbci	r31, 0xFE	; 254
     2d4:	80 81       	ld	r24, Z
     2d6:	88 23       	and	r24, r24
     2d8:	b1 f1       	breq	.+108    	; 0x346 <_ZN12RSController6onTickEv+0x9e>
     2da:	10 82       	st	Z, r1
     2dc:	6e 01       	movw	r12, r28
     2de:	08 94       	sec
     2e0:	c1 1c       	adc	r12, r1
     2e2:	d1 1c       	adc	r13, r1
     2e4:	80 e8       	ldi	r24, 0x80	; 128
     2e6:	f6 01       	movw	r30, r12
     2e8:	11 92       	st	Z+, r1
     2ea:	8a 95       	dec	r24
     2ec:	e9 f7       	brne	.-6      	; 0x2e8 <_ZN12RSController6onTickEv+0x40>
     2ee:	85 e9       	ldi	r24, 0x95	; 149
     2f0:	a8 2e       	mov	r10, r24
     2f2:	b1 2c       	mov	r11, r1
     2f4:	ae 0c       	add	r10, r14
     2f6:	bf 1c       	adc	r11, r15
     2f8:	c5 01       	movw	r24, r10
     2fa:	0e 94 ef 03 	call	0x7de	; 0x7de <_ZN10RingBuffer3getEv>
     2fe:	00 e0       	ldi	r16, 0x00	; 0
     300:	0c c0       	rjmp	.+24     	; 0x31a <_ZN12RSController6onTickEv+0x72>
     302:	00 23       	and	r16, r16
     304:	11 f4       	brne	.+4      	; 0x30a <_ZN12RSController6onTickEv+0x62>
     306:	89 83       	std	Y+1, r24	; 0x01
     308:	01 e0       	ldi	r16, 0x01	; 1
     30a:	c5 01       	movw	r24, r10
     30c:	0e 94 ef 03 	call	0x7de	; 0x7de <_ZN10RingBuffer3getEv>
     310:	f6 01       	movw	r30, r12
     312:	e0 0f       	add	r30, r16
     314:	f1 1d       	adc	r31, r1
     316:	80 83       	st	Z, r24
     318:	0f 5f       	subi	r16, 0xFF	; 255
     31a:	8f 3f       	cpi	r24, 0xFF	; 255
     31c:	11 f0       	breq	.+4      	; 0x322 <_ZN12RSController6onTickEv+0x7a>
     31e:	8d 30       	cpi	r24, 0x0D	; 13
     320:	81 f7       	brne	.-32     	; 0x302 <_ZN12RSController6onTickEv+0x5a>
     322:	fe 01       	movw	r30, r28
     324:	e0 0f       	add	r30, r16
     326:	f1 1d       	adc	r31, r1
     328:	80 81       	ld	r24, Z
     32a:	8d 30       	cpi	r24, 0x0D	; 13
     32c:	09 f4       	brne	.+2      	; 0x330 <_ZN12RSController6onTickEv+0x88>
     32e:	01 50       	subi	r16, 0x01	; 1
     330:	be 01       	movw	r22, r28
     332:	6f 5f       	subi	r22, 0xFF	; 255
     334:	7f 4f       	sbci	r23, 0xFF	; 255
     336:	fb 01       	movw	r30, r22
     338:	e0 0f       	add	r30, r16
     33a:	f1 1d       	adc	r31, r1
     33c:	10 82       	st	Z, r1
     33e:	c7 01       	movw	r24, r14
     340:	02 96       	adiw	r24, 0x02	; 2
     342:	0e 94 a4 03 	call	0x748	; 0x748 <_ZN8Listener9fireEventEPv>
     346:	c0 58       	subi	r28, 0x80	; 128
     348:	df 4f       	sbci	r29, 0xFF	; 255
     34a:	0f b6       	in	r0, 0x3f	; 63
     34c:	f8 94       	cli
     34e:	de bf       	out	0x3e, r29	; 62
     350:	0f be       	out	0x3f, r0	; 63
     352:	cd bf       	out	0x3d, r28	; 61
     354:	cf 91       	pop	r28
     356:	df 91       	pop	r29
     358:	0f 91       	pop	r16
     35a:	ff 90       	pop	r15
     35c:	ef 90       	pop	r14
     35e:	df 90       	pop	r13
     360:	cf 90       	pop	r12
     362:	bf 90       	pop	r11
     364:	af 90       	pop	r10
     366:	08 95       	ret

00000368 <_ZN12RSController4onRxEv>:
     368:	1f 93       	push	r17
     36a:	cf 93       	push	r28
     36c:	df 93       	push	r29
     36e:	ec 01       	movw	r28, r24
     370:	80 91 c0 00 	lds	r24, 0x00C0
     374:	87 ff       	sbrs	r24, 7
     376:	0e c0       	rjmp	.+28     	; 0x394 <_ZN12RSController4onRxEv+0x2c>
     378:	10 91 c6 00 	lds	r17, 0x00C6
     37c:	ce 01       	movw	r24, r28
     37e:	8b 56       	subi	r24, 0x6B	; 107
     380:	9f 4f       	sbci	r25, 0xFF	; 255
     382:	61 2f       	mov	r22, r17
     384:	0e 94 d4 03 	call	0x7a8	; 0x7a8 <_ZN10RingBuffer3addEc>
     388:	1d 30       	cpi	r17, 0x0D	; 13
     38a:	21 f4       	brne	.+8      	; 0x394 <_ZN12RSController4onRxEv+0x2c>
     38c:	c9 5e       	subi	r28, 0xE9	; 233
     38e:	de 4f       	sbci	r29, 0xFE	; 254
     390:	81 e0       	ldi	r24, 0x01	; 1
     392:	88 83       	st	Y, r24
     394:	df 91       	pop	r29
     396:	cf 91       	pop	r28
     398:	1f 91       	pop	r17
     39a:	08 95       	ret

0000039c <__vector_18>:
     39c:	1f 92       	push	r1
     39e:	0f 92       	push	r0
     3a0:	0f b6       	in	r0, 0x3f	; 63
     3a2:	0f 92       	push	r0
     3a4:	11 24       	eor	r1, r1
     3a6:	2f 93       	push	r18
     3a8:	3f 93       	push	r19
     3aa:	4f 93       	push	r20
     3ac:	5f 93       	push	r21
     3ae:	6f 93       	push	r22
     3b0:	7f 93       	push	r23
     3b2:	8f 93       	push	r24
     3b4:	9f 93       	push	r25
     3b6:	af 93       	push	r26
     3b8:	bf 93       	push	r27
     3ba:	ef 93       	push	r30
     3bc:	ff 93       	push	r31
     3be:	88 e6       	ldi	r24, 0x68	; 104
     3c0:	92 e0       	ldi	r25, 0x02	; 2
     3c2:	0e 94 b4 01 	call	0x368	; 0x368 <_ZN12RSController4onRxEv>
     3c6:	ff 91       	pop	r31
     3c8:	ef 91       	pop	r30
     3ca:	bf 91       	pop	r27
     3cc:	af 91       	pop	r26
     3ce:	9f 91       	pop	r25
     3d0:	8f 91       	pop	r24
     3d2:	7f 91       	pop	r23
     3d4:	6f 91       	pop	r22
     3d6:	5f 91       	pop	r21
     3d8:	4f 91       	pop	r20
     3da:	3f 91       	pop	r19
     3dc:	2f 91       	pop	r18
     3de:	0f 90       	pop	r0
     3e0:	0f be       	out	0x3f, r0	; 63
     3e2:	0f 90       	pop	r0
     3e4:	1f 90       	pop	r1
     3e6:	18 95       	reti

000003e8 <_ZN12RSController8sendLineEPc>:
     3e8:	ef 92       	push	r14
     3ea:	ff 92       	push	r15
     3ec:	0f 93       	push	r16
     3ee:	1f 93       	push	r17
     3f0:	cf 93       	push	r28
     3f2:	df 93       	push	r29
     3f4:	7c 01       	movw	r14, r24
     3f6:	eb 01       	movw	r28, r22
     3f8:	8c 01       	movw	r16, r24
     3fa:	0d 5e       	subi	r16, 0xED	; 237
     3fc:	1f 4f       	sbci	r17, 0xFF	; 255
     3fe:	04 c0       	rjmp	.+8      	; 0x408 <_ZN12RSController8sendLineEPc+0x20>
     400:	c8 01       	movw	r24, r16
     402:	0e 94 d4 03 	call	0x7a8	; 0x7a8 <_ZN10RingBuffer3addEc>
     406:	21 96       	adiw	r28, 0x01	; 1
     408:	68 81       	ld	r22, Y
     40a:	66 23       	and	r22, r22
     40c:	c9 f7       	brne	.-14     	; 0x400 <_ZN12RSController8sendLineEPc+0x18>
     40e:	c8 01       	movw	r24, r16
     410:	6d e0       	ldi	r22, 0x0D	; 13
     412:	0e 94 d4 03 	call	0x7a8	; 0x7a8 <_ZN10RingBuffer3addEc>
     416:	c8 01       	movw	r24, r16
     418:	6a e0       	ldi	r22, 0x0A	; 10
     41a:	0e 94 d4 03 	call	0x7a8	; 0x7a8 <_ZN10RingBuffer3addEc>
     41e:	c7 01       	movw	r24, r14
     420:	0e 94 20 01 	call	0x240	; 0x240 <_ZN12RSController4onTxEv>
     424:	df 91       	pop	r29
     426:	cf 91       	pop	r28
     428:	1f 91       	pop	r17
     42a:	0f 91       	pop	r16
     42c:	ff 90       	pop	r15
     42e:	ef 90       	pop	r14
     430:	08 95       	ret

00000432 <_ZN12RSController4sendEPc>:
     432:	ef 92       	push	r14
     434:	ff 92       	push	r15
     436:	0f 93       	push	r16
     438:	1f 93       	push	r17
     43a:	cf 93       	push	r28
     43c:	df 93       	push	r29
     43e:	8c 01       	movw	r16, r24
     440:	eb 01       	movw	r28, r22
     442:	93 e1       	ldi	r25, 0x13	; 19
     444:	e9 2e       	mov	r14, r25
     446:	f1 2c       	mov	r15, r1
     448:	e0 0e       	add	r14, r16
     44a:	f1 1e       	adc	r15, r17
     44c:	04 c0       	rjmp	.+8      	; 0x456 <_ZN12RSController4sendEPc+0x24>
     44e:	c7 01       	movw	r24, r14
     450:	0e 94 d4 03 	call	0x7a8	; 0x7a8 <_ZN10RingBuffer3addEc>
     454:	21 96       	adiw	r28, 0x01	; 1
     456:	68 81       	ld	r22, Y
     458:	66 23       	and	r22, r22
     45a:	c9 f7       	brne	.-14     	; 0x44e <_ZN12RSController4sendEPc+0x1c>
     45c:	c8 01       	movw	r24, r16
     45e:	0e 94 20 01 	call	0x240	; 0x240 <_ZN12RSController4onTxEv>
     462:	df 91       	pop	r29
     464:	cf 91       	pop	r28
     466:	1f 91       	pop	r17
     468:	0f 91       	pop	r16
     46a:	ff 90       	pop	r15
     46c:	ef 90       	pop	r14
     46e:	08 95       	ret

00000470 <_ZN12RSControllerC1Ev>:
     470:	0f 93       	push	r16
     472:	1f 93       	push	r17
     474:	8c 01       	movw	r16, r24
     476:	02 96       	adiw	r24, 0x02	; 2
     478:	0e 94 5d 03 	call	0x6ba	; 0x6ba <_ZN8ListenerC2Ev>
     47c:	80 e1       	ldi	r24, 0x10	; 16
     47e:	91 e0       	ldi	r25, 0x01	; 1
     480:	f8 01       	movw	r30, r16
     482:	91 83       	std	Z+1, r25	; 0x01
     484:	80 83       	st	Z, r24
     486:	c8 01       	movw	r24, r16
     488:	43 96       	adiw	r24, 0x13	; 19
     48a:	0e 94 ce 03 	call	0x79c	; 0x79c <_ZN10RingBufferC1Ev>
     48e:	c8 01       	movw	r24, r16
     490:	8b 56       	subi	r24, 0x6B	; 107
     492:	9f 4f       	sbci	r25, 0xFF	; 255
     494:	0e 94 ce 03 	call	0x79c	; 0x79c <_ZN10RingBufferC1Ev>
     498:	83 e3       	ldi	r24, 0x33	; 51
     49a:	90 e0       	ldi	r25, 0x00	; 0
     49c:	90 93 c5 00 	sts	0x00C5, r25
     4a0:	80 93 c4 00 	sts	0x00C4, r24
     4a4:	86 e0       	ldi	r24, 0x06	; 6
     4a6:	80 93 c2 00 	sts	0x00C2, r24
     4aa:	88 ed       	ldi	r24, 0xD8	; 216
     4ac:	80 93 c1 00 	sts	0x00C1, r24
     4b0:	09 5e       	subi	r16, 0xE9	; 233
     4b2:	1e 4f       	sbci	r17, 0xFE	; 254
     4b4:	f8 01       	movw	r30, r16
     4b6:	10 82       	st	Z, r1
     4b8:	1f 91       	pop	r17
     4ba:	0f 91       	pop	r16
     4bc:	08 95       	ret

000004be <_ZN12RSControllerC2Ev>:
     4be:	0f 93       	push	r16
     4c0:	1f 93       	push	r17
     4c2:	8c 01       	movw	r16, r24
     4c4:	02 96       	adiw	r24, 0x02	; 2
     4c6:	0e 94 5d 03 	call	0x6ba	; 0x6ba <_ZN8ListenerC2Ev>
     4ca:	80 e1       	ldi	r24, 0x10	; 16
     4cc:	91 e0       	ldi	r25, 0x01	; 1
     4ce:	f8 01       	movw	r30, r16
     4d0:	91 83       	std	Z+1, r25	; 0x01
     4d2:	80 83       	st	Z, r24
     4d4:	c8 01       	movw	r24, r16
     4d6:	43 96       	adiw	r24, 0x13	; 19
     4d8:	0e 94 ce 03 	call	0x79c	; 0x79c <_ZN10RingBufferC1Ev>
     4dc:	c8 01       	movw	r24, r16
     4de:	8b 56       	subi	r24, 0x6B	; 107
     4e0:	9f 4f       	sbci	r25, 0xFF	; 255
     4e2:	0e 94 ce 03 	call	0x79c	; 0x79c <_ZN10RingBufferC1Ev>
     4e6:	83 e3       	ldi	r24, 0x33	; 51
     4e8:	90 e0       	ldi	r25, 0x00	; 0
     4ea:	90 93 c5 00 	sts	0x00C5, r25
     4ee:	80 93 c4 00 	sts	0x00C4, r24
     4f2:	86 e0       	ldi	r24, 0x06	; 6
     4f4:	80 93 c2 00 	sts	0x00C2, r24
     4f8:	88 ed       	ldi	r24, 0xD8	; 216
     4fa:	80 93 c1 00 	sts	0x00C1, r24
     4fe:	09 5e       	subi	r16, 0xE9	; 233
     500:	1e 4f       	sbci	r17, 0xFE	; 254
     502:	f8 01       	movw	r30, r16
     504:	10 82       	st	Z, r1
     506:	1f 91       	pop	r17
     508:	0f 91       	pop	r16
     50a:	08 95       	ret

0000050c <__cxa_guard_acquire>:
     50c:	fc 01       	movw	r30, r24
     50e:	20 e0       	ldi	r18, 0x00	; 0
     510:	30 e0       	ldi	r19, 0x00	; 0
     512:	80 81       	ld	r24, Z
     514:	88 23       	and	r24, r24
     516:	11 f4       	brne	.+4      	; 0x51c <__cxa_guard_acquire+0x10>
     518:	21 e0       	ldi	r18, 0x01	; 1
     51a:	30 e0       	ldi	r19, 0x00	; 0
     51c:	c9 01       	movw	r24, r18
     51e:	08 95       	ret

00000520 <__cxa_guard_release>:
     520:	fc 01       	movw	r30, r24
     522:	81 e0       	ldi	r24, 0x01	; 1
     524:	80 83       	st	Z, r24
     526:	08 95       	ret

00000528 <__cxa_guard_abort>:
     528:	08 95       	ret

0000052a <__cxa_pure_virtual>:
     52a:	08 95       	ret

0000052c <_ZdlPv>:
     52c:	0e 94 dc 12 	call	0x25b8	; 0x25b8 <free>
     530:	08 95       	ret

00000532 <_Znwj>:
     532:	0e 94 2f 12 	call	0x245e	; 0x245e <malloc>
     536:	08 95       	ret

00000538 <_GLOBAL__I_rs>:
     538:	88 e6       	ldi	r24, 0x68	; 104
     53a:	92 e0       	ldi	r25, 0x02	; 2
     53c:	0e 94 38 02 	call	0x470	; 0x470 <_ZN12RSControllerC1Ev>
     540:	08 95       	ret

00000542 <main>:
     542:	0f 93       	push	r16
     544:	1f 93       	push	r17
     546:	df 93       	push	r29
     548:	cf 93       	push	r28
     54a:	cd b7       	in	r28, 0x3d	; 61
     54c:	de b7       	in	r29, 0x3e	; 62
     54e:	a2 97       	sbiw	r28, 0x22	; 34
     550:	0f b6       	in	r0, 0x3f	; 63
     552:	f8 94       	cli
     554:	de bf       	out	0x3e, r29	; 62
     556:	0f be       	out	0x3f, r0	; 63
     558:	cd bf       	out	0x3d, r28	; 61
     55a:	85 e5       	ldi	r24, 0x55	; 85
     55c:	91 e0       	ldi	r25, 0x01	; 1
     55e:	9a 83       	std	Y+2, r25	; 0x02
     560:	89 83       	std	Y+1, r24	; 0x01
     562:	ce 01       	movw	r24, r28
     564:	03 96       	adiw	r24, 0x03	; 3
     566:	0e 94 80 06 	call	0xd00	; 0xd00 <_ZN9ByteModelC1Ev>
     56a:	8e 01       	movw	r16, r28
     56c:	00 5f       	subi	r16, 0xF0	; 240
     56e:	1f 4f       	sbci	r17, 0xFF	; 255
     570:	c8 01       	movw	r24, r16
     572:	0e 94 66 00 	call	0xcc	; 0xcc <_ZN18ProtocolControllerC1Ev>
     576:	8a e6       	ldi	r24, 0x6A	; 106
     578:	92 e0       	ldi	r25, 0x02	; 2
     57a:	b8 01       	movw	r22, r16
     57c:	0e 94 8a 03 	call	0x714	; 0x714 <_ZN8Listener11addListenerEP13ListenerAware>
     580:	2a a1       	ldd	r18, Y+34	; 0x22
     582:	e2 2f       	mov	r30, r18
     584:	f0 e0       	ldi	r31, 0x00	; 0
     586:	31 96       	adiw	r30, 0x01	; 1
     588:	ee 0f       	add	r30, r30
     58a:	ff 1f       	adc	r31, r31
     58c:	ce 01       	movw	r24, r28
     58e:	01 96       	adiw	r24, 0x01	; 1
     590:	e8 0f       	add	r30, r24
     592:	f9 1f       	adc	r31, r25
     594:	90 8b       	std	Z+16, r25	; 0x10
     596:	87 87       	std	Z+15, r24	; 0x0f
     598:	2f 5f       	subi	r18, 0xFF	; 255
     59a:	2a a3       	std	Y+34, r18	; 0x22
     59c:	78 94       	sei
     59e:	88 e6       	ldi	r24, 0x68	; 104
     5a0:	92 e0       	ldi	r25, 0x02	; 2
     5a2:	0e 94 54 01 	call	0x2a8	; 0x2a8 <_ZN12RSController6onTickEv>
     5a6:	fb cf       	rjmp	.-10     	; 0x59e <main+0x5c>

000005a8 <_ZN15EventController8getEventEv>:
     5a8:	81 e0       	ldi	r24, 0x01	; 1
     5aa:	08 95       	ret

000005ac <_ZN15EventController18getMultiEventCountEv>:
     5ac:	80 e1       	ldi	r24, 0x10	; 16
     5ae:	08 95       	ret

000005b0 <_ZN15EventController12onMultiEventEv>:
     5b0:	08 95       	ret

000005b2 <_ZN15EventControllerC2Ev>:
     5b2:	fc 01       	movw	r30, r24
     5b4:	84 e2       	ldi	r24, 0x24	; 36
     5b6:	91 e0       	ldi	r25, 0x01	; 1
     5b8:	91 83       	std	Z+1, r25	; 0x01
     5ba:	80 83       	st	Z, r24
     5bc:	13 82       	std	Z+3, r1	; 0x03
     5be:	12 82       	std	Z+2, r1	; 0x02
     5c0:	14 82       	std	Z+4, r1	; 0x04
     5c2:	15 82       	std	Z+5, r1	; 0x05
     5c4:	08 95       	ret

000005c6 <_ZN15EventControllerC1Ev>:
     5c6:	fc 01       	movw	r30, r24
     5c8:	84 e2       	ldi	r24, 0x24	; 36
     5ca:	91 e0       	ldi	r25, 0x01	; 1
     5cc:	91 83       	std	Z+1, r25	; 0x01
     5ce:	80 83       	st	Z, r24
     5d0:	13 82       	std	Z+3, r1	; 0x03
     5d2:	12 82       	std	Z+2, r1	; 0x02
     5d4:	14 82       	std	Z+4, r1	; 0x04
     5d6:	15 82       	std	Z+5, r1	; 0x05
     5d8:	08 95       	ret

000005da <_ZN15EventController18multiEventOneEventEv>:
     5da:	1f 93       	push	r17
     5dc:	cf 93       	push	r28
     5de:	df 93       	push	r29
     5e0:	ec 01       	movw	r28, r24
     5e2:	1d 81       	ldd	r17, Y+5	; 0x05
     5e4:	1f 5f       	subi	r17, 0xFF	; 255
     5e6:	1d 83       	std	Y+5, r17	; 0x05
     5e8:	e8 81       	ld	r30, Y
     5ea:	f9 81       	ldd	r31, Y+1	; 0x01
     5ec:	02 80       	ldd	r0, Z+2	; 0x02
     5ee:	f3 81       	ldd	r31, Z+3	; 0x03
     5f0:	e0 2d       	mov	r30, r0
     5f2:	09 95       	icall
     5f4:	18 17       	cp	r17, r24
     5f6:	61 f4       	brne	.+24     	; 0x610 <_ZN15EventController18multiEventOneEventEv+0x36>
     5f8:	8e 81       	ldd	r24, Y+6	; 0x06
     5fa:	88 3c       	cpi	r24, 0xC8	; 200
     5fc:	48 f4       	brcc	.+18     	; 0x610 <_ZN15EventController18multiEventOneEventEv+0x36>
     5fe:	e8 81       	ld	r30, Y
     600:	f9 81       	ldd	r31, Y+1	; 0x01
     602:	02 84       	ldd	r0, Z+10	; 0x0a
     604:	f3 85       	ldd	r31, Z+11	; 0x0b
     606:	e0 2d       	mov	r30, r0
     608:	ce 01       	movw	r24, r28
     60a:	09 95       	icall
     60c:	1d 82       	std	Y+5, r1	; 0x05
     60e:	1e 82       	std	Y+6, r1	; 0x06
     610:	df 91       	pop	r29
     612:	cf 91       	pop	r28
     614:	1f 91       	pop	r17
     616:	08 95       	ret

00000618 <_ZN15EventController15multiEventEventEv>:
     618:	fc 01       	movw	r30, r24
     61a:	85 81       	ldd	r24, Z+5	; 0x05
     61c:	88 23       	and	r24, r24
     61e:	19 f0       	breq	.+6      	; 0x626 <_ZN15EventController15multiEventEventEv+0xe>
     620:	86 81       	ldd	r24, Z+6	; 0x06
     622:	8f 5f       	subi	r24, 0xFF	; 255
     624:	86 83       	std	Z+6, r24	; 0x06
     626:	86 81       	ldd	r24, Z+6	; 0x06
     628:	89 3c       	cpi	r24, 0xC9	; 201
     62a:	10 f0       	brcs	.+4      	; 0x630 <_ZN15EventController15multiEventEventEv+0x18>
     62c:	15 82       	std	Z+5, r1	; 0x05
     62e:	16 82       	std	Z+6, r1	; 0x06
     630:	08 95       	ret

00000632 <_ZN15EventController6onTickEv>:
     632:	cf 93       	push	r28
     634:	df 93       	push	r29
     636:	ec 01       	movw	r28, r24
     638:	e8 81       	ld	r30, Y
     63a:	f9 81       	ldd	r31, Y+1	; 0x01
     63c:	01 90       	ld	r0, Z+
     63e:	f0 81       	ld	r31, Z
     640:	e0 2d       	mov	r30, r0
     642:	09 95       	icall
     644:	98 2f       	mov	r25, r24
     646:	81 30       	cpi	r24, 0x01	; 1
     648:	c9 f4       	brne	.+50     	; 0x67c <_ZN15EventController6onTickEv+0x4a>
     64a:	8b 81       	ldd	r24, Y+3	; 0x03
     64c:	88 23       	and	r24, r24
     64e:	19 f4       	brne	.+6      	; 0x656 <_ZN15EventController6onTickEv+0x24>
     650:	1a 82       	std	Y+2, r1	; 0x02
     652:	1c 82       	std	Y+4, r1	; 0x04
     654:	9b 83       	std	Y+3, r25	; 0x03
     656:	8a 81       	ldd	r24, Y+2	; 0x02
     658:	8e 31       	cpi	r24, 0x1E	; 30
     65a:	11 f4       	brne	.+4      	; 0x660 <_ZN15EventController6onTickEv+0x2e>
     65c:	81 e0       	ldi	r24, 0x01	; 1
     65e:	8c 83       	std	Y+4, r24	; 0x04
     660:	8c 81       	ldd	r24, Y+4	; 0x04
     662:	81 30       	cpi	r24, 0x01	; 1
     664:	39 f4       	brne	.+14     	; 0x674 <_ZN15EventController6onTickEv+0x42>
     666:	e8 81       	ld	r30, Y
     668:	f9 81       	ldd	r31, Y+1	; 0x01
     66a:	06 80       	ldd	r0, Z+6	; 0x06
     66c:	f7 81       	ldd	r31, Z+7	; 0x07
     66e:	e0 2d       	mov	r30, r0
     670:	ce 01       	movw	r24, r28
     672:	09 95       	icall
     674:	8a 81       	ldd	r24, Y+2	; 0x02
     676:	8f 5f       	subi	r24, 0xFF	; 255
     678:	8a 83       	std	Y+2, r24	; 0x02
     67a:	19 c0       	rjmp	.+50     	; 0x6ae <_ZN15EventController6onTickEv+0x7c>
     67c:	8a 81       	ldd	r24, Y+2	; 0x02
     67e:	88 23       	and	r24, r24
     680:	99 f0       	breq	.+38     	; 0x6a8 <_ZN15EventController6onTickEv+0x76>
     682:	8c 81       	ldd	r24, Y+4	; 0x04
     684:	e8 81       	ld	r30, Y
     686:	f9 81       	ldd	r31, Y+1	; 0x01
     688:	88 23       	and	r24, r24
     68a:	49 f4       	brne	.+18     	; 0x69e <_ZN15EventController6onTickEv+0x6c>
     68c:	04 80       	ldd	r0, Z+4	; 0x04
     68e:	f5 81       	ldd	r31, Z+5	; 0x05
     690:	e0 2d       	mov	r30, r0
     692:	ce 01       	movw	r24, r28
     694:	09 95       	icall
     696:	ce 01       	movw	r24, r28
     698:	0e 94 ed 02 	call	0x5da	; 0x5da <_ZN15EventController18multiEventOneEventEv>
     69c:	05 c0       	rjmp	.+10     	; 0x6a8 <_ZN15EventController6onTickEv+0x76>
     69e:	00 84       	ldd	r0, Z+8	; 0x08
     6a0:	f1 85       	ldd	r31, Z+9	; 0x09
     6a2:	e0 2d       	mov	r30, r0
     6a4:	ce 01       	movw	r24, r28
     6a6:	09 95       	icall
     6a8:	1b 82       	std	Y+3, r1	; 0x03
     6aa:	1a 82       	std	Y+2, r1	; 0x02
     6ac:	1c 82       	std	Y+4, r1	; 0x04
     6ae:	ce 01       	movw	r24, r28
     6b0:	0e 94 0c 03 	call	0x618	; 0x618 <_ZN15EventController15multiEventEventEv>
     6b4:	df 91       	pop	r29
     6b6:	cf 91       	pop	r28
     6b8:	08 95       	ret

000006ba <_ZN8ListenerC2Ev>:
     6ba:	fc 01       	movw	r30, r24
     6bc:	10 82       	st	Z, r1
     6be:	08 95       	ret

000006c0 <_ZN8ListenerC1Ev>:
     6c0:	fc 01       	movw	r30, r24
     6c2:	10 82       	st	Z, r1
     6c4:	08 95       	ret

000006c6 <_ZN8Listener14removeListenerEP13ListenerAware>:
     6c6:	cf 93       	push	r28
     6c8:	df 93       	push	r29
     6ca:	ec 01       	movw	r28, r24
     6cc:	dc 01       	movw	r26, r24
     6ce:	20 e0       	ldi	r18, 0x00	; 0
     6d0:	30 e0       	ldi	r19, 0x00	; 0
     6d2:	17 c0       	rjmp	.+46     	; 0x702 <_ZN8Listener14removeListenerEP13ListenerAware+0x3c>
     6d4:	11 96       	adiw	r26, 0x01	; 1
     6d6:	8d 91       	ld	r24, X+
     6d8:	9c 91       	ld	r25, X
     6da:	12 97       	sbiw	r26, 0x02	; 2
     6dc:	86 17       	cp	r24, r22
     6de:	97 07       	cpc	r25, r23
     6e0:	69 f4       	brne	.+26     	; 0x6fc <_ZN8Listener14removeListenerEP13ListenerAware+0x36>
     6e2:	e1 50       	subi	r30, 0x01	; 1
     6e4:	e8 83       	st	Y, r30
     6e6:	f0 e0       	ldi	r31, 0x00	; 0
     6e8:	ee 0f       	add	r30, r30
     6ea:	ff 1f       	adc	r31, r31
     6ec:	ec 0f       	add	r30, r28
     6ee:	fd 1f       	adc	r31, r29
     6f0:	81 81       	ldd	r24, Z+1	; 0x01
     6f2:	92 81       	ldd	r25, Z+2	; 0x02
     6f4:	12 96       	adiw	r26, 0x02	; 2
     6f6:	9c 93       	st	X, r25
     6f8:	8e 93       	st	-X, r24
     6fa:	11 97       	sbiw	r26, 0x01	; 1
     6fc:	2f 5f       	subi	r18, 0xFF	; 255
     6fe:	3f 4f       	sbci	r19, 0xFF	; 255
     700:	12 96       	adiw	r26, 0x02	; 2
     702:	e8 81       	ld	r30, Y
     704:	8e 2f       	mov	r24, r30
     706:	90 e0       	ldi	r25, 0x00	; 0
     708:	28 17       	cp	r18, r24
     70a:	39 07       	cpc	r19, r25
     70c:	18 f3       	brcs	.-58     	; 0x6d4 <_ZN8Listener14removeListenerEP13ListenerAware+0xe>
     70e:	df 91       	pop	r29
     710:	cf 91       	pop	r28
     712:	08 95       	ret

00000714 <_ZN8Listener11addListenerEP13ListenerAware>:
     714:	ef 92       	push	r14
     716:	ff 92       	push	r15
     718:	0f 93       	push	r16
     71a:	1f 93       	push	r17
     71c:	8c 01       	movw	r16, r24
     71e:	7b 01       	movw	r14, r22
     720:	0e 94 63 03 	call	0x6c6	; 0x6c6 <_ZN8Listener14removeListenerEP13ListenerAware>
     724:	f8 01       	movw	r30, r16
     726:	80 81       	ld	r24, Z
     728:	e8 2f       	mov	r30, r24
     72a:	f0 e0       	ldi	r31, 0x00	; 0
     72c:	ee 0f       	add	r30, r30
     72e:	ff 1f       	adc	r31, r31
     730:	e0 0f       	add	r30, r16
     732:	f1 1f       	adc	r31, r17
     734:	f2 82       	std	Z+2, r15	; 0x02
     736:	e1 82       	std	Z+1, r14	; 0x01
     738:	8f 5f       	subi	r24, 0xFF	; 255
     73a:	f8 01       	movw	r30, r16
     73c:	80 83       	st	Z, r24
     73e:	1f 91       	pop	r17
     740:	0f 91       	pop	r16
     742:	ff 90       	pop	r15
     744:	ef 90       	pop	r14
     746:	08 95       	ret

00000748 <_ZN8Listener9fireEventEPv>:
     748:	ef 92       	push	r14
     74a:	ff 92       	push	r15
     74c:	1f 93       	push	r17
     74e:	cf 93       	push	r28
     750:	df 93       	push	r29
     752:	ec 01       	movw	r28, r24
     754:	7b 01       	movw	r14, r22
     756:	10 e0       	ldi	r17, 0x00	; 0
     758:	12 c0       	rjmp	.+36     	; 0x77e <_ZN8Listener9fireEventEPv+0x36>
     75a:	e1 2f       	mov	r30, r17
     75c:	f0 e0       	ldi	r31, 0x00	; 0
     75e:	ee 0f       	add	r30, r30
     760:	ff 1f       	adc	r31, r31
     762:	ec 0f       	add	r30, r28
     764:	fd 1f       	adc	r31, r29
     766:	a1 81       	ldd	r26, Z+1	; 0x01
     768:	b2 81       	ldd	r27, Z+2	; 0x02
     76a:	ed 91       	ld	r30, X+
     76c:	fc 91       	ld	r31, X
     76e:	11 97       	sbiw	r26, 0x01	; 1
     770:	01 90       	ld	r0, Z+
     772:	f0 81       	ld	r31, Z
     774:	e0 2d       	mov	r30, r0
     776:	cd 01       	movw	r24, r26
     778:	b7 01       	movw	r22, r14
     77a:	09 95       	icall
     77c:	1f 5f       	subi	r17, 0xFF	; 255
     77e:	88 81       	ld	r24, Y
     780:	18 17       	cp	r17, r24
     782:	58 f3       	brcs	.-42     	; 0x75a <_ZN8Listener9fireEventEPv+0x12>
     784:	df 91       	pop	r29
     786:	cf 91       	pop	r28
     788:	1f 91       	pop	r17
     78a:	ff 90       	pop	r15
     78c:	ef 90       	pop	r14
     78e:	08 95       	ret

00000790 <_ZN10RingBufferC2Ev>:
     790:	fc 01       	movw	r30, r24
     792:	ef 57       	subi	r30, 0x7F	; 127
     794:	ff 4f       	sbci	r31, 0xFF	; 255
     796:	80 81       	ld	r24, Z
     798:	82 93       	st	-Z, r24
     79a:	08 95       	ret

0000079c <_ZN10RingBufferC1Ev>:
     79c:	fc 01       	movw	r30, r24
     79e:	ef 57       	subi	r30, 0x7F	; 127
     7a0:	ff 4f       	sbci	r31, 0xFF	; 255
     7a2:	80 81       	ld	r24, Z
     7a4:	82 93       	st	-Z, r24
     7a6:	08 95       	ret

000007a8 <_ZN10RingBuffer3addEc>:
     7a8:	dc 01       	movw	r26, r24
     7aa:	a0 58       	subi	r26, 0x80	; 128
     7ac:	bf 4f       	sbci	r27, 0xFF	; 255
     7ae:	ec 91       	ld	r30, X
     7b0:	f0 e0       	ldi	r31, 0x00	; 0
     7b2:	31 96       	adiw	r30, 0x01	; 1
     7b4:	9f 01       	movw	r18, r30
     7b6:	2f 77       	andi	r18, 0x7F	; 127
     7b8:	30 70       	andi	r19, 0x00	; 0
     7ba:	31 97       	sbiw	r30, 0x01	; 1
     7bc:	e8 0f       	add	r30, r24
     7be:	f9 1f       	adc	r31, r25
     7c0:	60 83       	st	Z, r22
     7c2:	2c 93       	st	X, r18
     7c4:	fc 01       	movw	r30, r24
     7c6:	ef 57       	subi	r30, 0x7F	; 127
     7c8:	ff 4f       	sbci	r31, 0xFF	; 255
     7ca:	80 81       	ld	r24, Z
     7cc:	28 17       	cp	r18, r24
     7ce:	31 f4       	brne	.+12     	; 0x7dc <_ZN10RingBuffer3addEc+0x34>
     7d0:	82 2f       	mov	r24, r18
     7d2:	90 e0       	ldi	r25, 0x00	; 0
     7d4:	01 96       	adiw	r24, 0x01	; 1
     7d6:	8f 77       	andi	r24, 0x7F	; 127
     7d8:	90 70       	andi	r25, 0x00	; 0
     7da:	80 83       	st	Z, r24
     7dc:	08 95       	ret

000007de <_ZN10RingBuffer3getEv>:
     7de:	fc 01       	movw	r30, r24
     7e0:	dc 01       	movw	r26, r24
     7e2:	af 57       	subi	r26, 0x7F	; 127
     7e4:	bf 4f       	sbci	r27, 0xFF	; 255
     7e6:	9c 91       	ld	r25, X
     7e8:	e0 58       	subi	r30, 0x80	; 128
     7ea:	ff 4f       	sbci	r31, 0xFF	; 255
     7ec:	80 81       	ld	r24, Z
     7ee:	e0 58       	subi	r30, 0x80	; 128
     7f0:	f0 40       	sbci	r31, 0x00	; 0
     7f2:	89 17       	cp	r24, r25
     7f4:	11 f4       	brne	.+4      	; 0x7fa <_ZN10RingBuffer3getEv+0x1c>
     7f6:	2f ef       	ldi	r18, 0xFF	; 255
     7f8:	09 c0       	rjmp	.+18     	; 0x80c <_ZN10RingBuffer3getEv+0x2e>
     7fa:	89 2f       	mov	r24, r25
     7fc:	90 e0       	ldi	r25, 0x00	; 0
     7fe:	e8 0f       	add	r30, r24
     800:	f9 1f       	adc	r31, r25
     802:	20 81       	ld	r18, Z
     804:	01 96       	adiw	r24, 0x01	; 1
     806:	8f 77       	andi	r24, 0x7F	; 127
     808:	90 70       	andi	r25, 0x00	; 0
     80a:	8c 93       	st	X, r24
     80c:	82 2f       	mov	r24, r18
     80e:	08 95       	ret

00000810 <_ZN10RingBuffer5flushEv>:
     810:	fc 01       	movw	r30, r24
     812:	ef 57       	subi	r30, 0x7F	; 127
     814:	ff 4f       	sbci	r31, 0xFF	; 255
     816:	80 81       	ld	r24, Z
     818:	82 93       	st	-Z, r24
     81a:	08 95       	ret

0000081c <_ZN6Timer0C1Ev>:
     81c:	0f 93       	push	r16
     81e:	1f 93       	push	r17
     820:	df 93       	push	r29
     822:	cf 93       	push	r28
     824:	cd b7       	in	r28, 0x3d	; 61
     826:	de b7       	in	r29, 0x3e	; 62
     828:	27 97       	sbiw	r28, 0x07	; 7
     82a:	0f b6       	in	r0, 0x3f	; 63
     82c:	f8 94       	cli
     82e:	de bf       	out	0x3e, r29	; 62
     830:	0f be       	out	0x3f, r0	; 63
     832:	cd bf       	out	0x3d, r28	; 61
     834:	8c 01       	movw	r16, r24
     836:	0e 94 9a 05 	call	0xb34	; 0xb34 <_ZN12TimerCounterC2Ev>
     83a:	84 e4       	ldi	r24, 0x44	; 68
     83c:	90 e0       	ldi	r25, 0x00	; 0
     83e:	f8 01       	movw	r30, r16
     840:	92 83       	std	Z+2, r25	; 0x02
     842:	81 83       	std	Z+1, r24	; 0x01
     844:	85 e4       	ldi	r24, 0x45	; 69
     846:	90 e0       	ldi	r25, 0x00	; 0
     848:	94 83       	std	Z+4, r25	; 0x04
     84a:	83 83       	std	Z+3, r24	; 0x03
     84c:	87 e4       	ldi	r24, 0x47	; 71
     84e:	90 e0       	ldi	r25, 0x00	; 0
     850:	90 87       	std	Z+8, r25	; 0x08
     852:	87 83       	std	Z+7, r24	; 0x07
     854:	88 e4       	ldi	r24, 0x48	; 72
     856:	90 e0       	ldi	r25, 0x00	; 0
     858:	92 87       	std	Z+10, r25	; 0x0a
     85a:	81 87       	std	Z+9, r24	; 0x09
     85c:	86 e4       	ldi	r24, 0x46	; 70
     85e:	90 e0       	ldi	r25, 0x00	; 0
     860:	94 87       	std	Z+12, r25	; 0x0c
     862:	83 87       	std	Z+11, r24	; 0x0b
     864:	16 bc       	out	0x26, r1	; 38
     866:	ee e6       	ldi	r30, 0x6E	; 110
     868:	f0 e0       	ldi	r31, 0x00	; 0
     86a:	80 81       	ld	r24, Z
     86c:	81 60       	ori	r24, 0x01	; 1
     86e:	80 83       	st	Z, r24
     870:	ce 01       	movw	r24, r28
     872:	01 96       	adiw	r24, 0x01	; 1
     874:	0e 94 af 05 	call	0xb5e	; 0xb5e <_ZN12TimerCounterC1Ev>
     878:	27 96       	adiw	r28, 0x07	; 7
     87a:	0f b6       	in	r0, 0x3f	; 63
     87c:	f8 94       	cli
     87e:	de bf       	out	0x3e, r29	; 62
     880:	0f be       	out	0x3f, r0	; 63
     882:	cd bf       	out	0x3d, r28	; 61
     884:	cf 91       	pop	r28
     886:	df 91       	pop	r29
     888:	1f 91       	pop	r17
     88a:	0f 91       	pop	r16
     88c:	08 95       	ret

0000088e <_ZN6Timer0C2Ev>:
     88e:	0f 93       	push	r16
     890:	1f 93       	push	r17
     892:	df 93       	push	r29
     894:	cf 93       	push	r28
     896:	cd b7       	in	r28, 0x3d	; 61
     898:	de b7       	in	r29, 0x3e	; 62
     89a:	27 97       	sbiw	r28, 0x07	; 7
     89c:	0f b6       	in	r0, 0x3f	; 63
     89e:	f8 94       	cli
     8a0:	de bf       	out	0x3e, r29	; 62
     8a2:	0f be       	out	0x3f, r0	; 63
     8a4:	cd bf       	out	0x3d, r28	; 61
     8a6:	8c 01       	movw	r16, r24
     8a8:	0e 94 9a 05 	call	0xb34	; 0xb34 <_ZN12TimerCounterC2Ev>
     8ac:	84 e4       	ldi	r24, 0x44	; 68
     8ae:	90 e0       	ldi	r25, 0x00	; 0
     8b0:	f8 01       	movw	r30, r16
     8b2:	92 83       	std	Z+2, r25	; 0x02
     8b4:	81 83       	std	Z+1, r24	; 0x01
     8b6:	85 e4       	ldi	r24, 0x45	; 69
     8b8:	90 e0       	ldi	r25, 0x00	; 0
     8ba:	94 83       	std	Z+4, r25	; 0x04
     8bc:	83 83       	std	Z+3, r24	; 0x03
     8be:	87 e4       	ldi	r24, 0x47	; 71
     8c0:	90 e0       	ldi	r25, 0x00	; 0
     8c2:	90 87       	std	Z+8, r25	; 0x08
     8c4:	87 83       	std	Z+7, r24	; 0x07
     8c6:	88 e4       	ldi	r24, 0x48	; 72
     8c8:	90 e0       	ldi	r25, 0x00	; 0
     8ca:	92 87       	std	Z+10, r25	; 0x0a
     8cc:	81 87       	std	Z+9, r24	; 0x09
     8ce:	86 e4       	ldi	r24, 0x46	; 70
     8d0:	90 e0       	ldi	r25, 0x00	; 0
     8d2:	94 87       	std	Z+12, r25	; 0x0c
     8d4:	83 87       	std	Z+11, r24	; 0x0b
     8d6:	16 bc       	out	0x26, r1	; 38
     8d8:	ee e6       	ldi	r30, 0x6E	; 110
     8da:	f0 e0       	ldi	r31, 0x00	; 0
     8dc:	80 81       	ld	r24, Z
     8de:	81 60       	ori	r24, 0x01	; 1
     8e0:	80 83       	st	Z, r24
     8e2:	ce 01       	movw	r24, r28
     8e4:	01 96       	adiw	r24, 0x01	; 1
     8e6:	0e 94 af 05 	call	0xb5e	; 0xb5e <_ZN12TimerCounterC1Ev>
     8ea:	27 96       	adiw	r28, 0x07	; 7
     8ec:	0f b6       	in	r0, 0x3f	; 63
     8ee:	f8 94       	cli
     8f0:	de bf       	out	0x3e, r29	; 62
     8f2:	0f be       	out	0x3f, r0	; 63
     8f4:	cd bf       	out	0x3d, r28	; 61
     8f6:	cf 91       	pop	r28
     8f8:	df 91       	pop	r29
     8fa:	1f 91       	pop	r17
     8fc:	0f 91       	pop	r16
     8fe:	08 95       	ret

00000900 <_ZN6Timer1C1Ev>:
     900:	0f 93       	push	r16
     902:	1f 93       	push	r17
     904:	df 93       	push	r29
     906:	cf 93       	push	r28
     908:	cd b7       	in	r28, 0x3d	; 61
     90a:	de b7       	in	r29, 0x3e	; 62
     90c:	27 97       	sbiw	r28, 0x07	; 7
     90e:	0f b6       	in	r0, 0x3f	; 63
     910:	f8 94       	cli
     912:	de bf       	out	0x3e, r29	; 62
     914:	0f be       	out	0x3f, r0	; 63
     916:	cd bf       	out	0x3d, r28	; 61
     918:	8c 01       	movw	r16, r24
     91a:	0e 94 9a 05 	call	0xb34	; 0xb34 <_ZN12TimerCounterC2Ev>
     91e:	80 e8       	ldi	r24, 0x80	; 128
     920:	90 e0       	ldi	r25, 0x00	; 0
     922:	d8 01       	movw	r26, r16
     924:	12 96       	adiw	r26, 0x02	; 2
     926:	9c 93       	st	X, r25
     928:	8e 93       	st	-X, r24
     92a:	11 97       	sbiw	r26, 0x01	; 1
     92c:	81 e8       	ldi	r24, 0x81	; 129
     92e:	90 e0       	ldi	r25, 0x00	; 0
     930:	14 96       	adiw	r26, 0x04	; 4
     932:	9c 93       	st	X, r25
     934:	8e 93       	st	-X, r24
     936:	13 97       	sbiw	r26, 0x03	; 3
     938:	82 e8       	ldi	r24, 0x82	; 130
     93a:	90 e0       	ldi	r25, 0x00	; 0
     93c:	16 96       	adiw	r26, 0x06	; 6
     93e:	9c 93       	st	X, r25
     940:	8e 93       	st	-X, r24
     942:	15 97       	sbiw	r26, 0x05	; 5
     944:	88 e8       	ldi	r24, 0x88	; 136
     946:	90 e0       	ldi	r25, 0x00	; 0
     948:	18 96       	adiw	r26, 0x08	; 8
     94a:	9c 93       	st	X, r25
     94c:	8e 93       	st	-X, r24
     94e:	17 97       	sbiw	r26, 0x07	; 7
     950:	8a e8       	ldi	r24, 0x8A	; 138
     952:	90 e0       	ldi	r25, 0x00	; 0
     954:	1a 96       	adiw	r26, 0x0a	; 10
     956:	9c 93       	st	X, r25
     958:	8e 93       	st	-X, r24
     95a:	19 97       	sbiw	r26, 0x09	; 9
     95c:	e4 e8       	ldi	r30, 0x84	; 132
     95e:	f0 e0       	ldi	r31, 0x00	; 0
     960:	1e 96       	adiw	r26, 0x0e	; 14
     962:	fc 93       	st	X, r31
     964:	ee 93       	st	-X, r30
     966:	1d 97       	sbiw	r26, 0x0d	; 13
     968:	11 82       	std	Z+1, r1	; 0x01
     96a:	10 82       	st	Z, r1
     96c:	ef e6       	ldi	r30, 0x6F	; 111
     96e:	f0 e0       	ldi	r31, 0x00	; 0
     970:	80 81       	ld	r24, Z
     972:	81 60       	ori	r24, 0x01	; 1
     974:	80 83       	st	Z, r24
     976:	ce 01       	movw	r24, r28
     978:	01 96       	adiw	r24, 0x01	; 1
     97a:	0e 94 af 05 	call	0xb5e	; 0xb5e <_ZN12TimerCounterC1Ev>
     97e:	27 96       	adiw	r28, 0x07	; 7
     980:	0f b6       	in	r0, 0x3f	; 63
     982:	f8 94       	cli
     984:	de bf       	out	0x3e, r29	; 62
     986:	0f be       	out	0x3f, r0	; 63
     988:	cd bf       	out	0x3d, r28	; 61
     98a:	cf 91       	pop	r28
     98c:	df 91       	pop	r29
     98e:	1f 91       	pop	r17
     990:	0f 91       	pop	r16
     992:	08 95       	ret

00000994 <_ZN6Timer1C2Ev>:
     994:	0f 93       	push	r16
     996:	1f 93       	push	r17
     998:	df 93       	push	r29
     99a:	cf 93       	push	r28
     99c:	cd b7       	in	r28, 0x3d	; 61
     99e:	de b7       	in	r29, 0x3e	; 62
     9a0:	27 97       	sbiw	r28, 0x07	; 7
     9a2:	0f b6       	in	r0, 0x3f	; 63
     9a4:	f8 94       	cli
     9a6:	de bf       	out	0x3e, r29	; 62
     9a8:	0f be       	out	0x3f, r0	; 63
     9aa:	cd bf       	out	0x3d, r28	; 61
     9ac:	8c 01       	movw	r16, r24
     9ae:	0e 94 9a 05 	call	0xb34	; 0xb34 <_ZN12TimerCounterC2Ev>
     9b2:	80 e8       	ldi	r24, 0x80	; 128
     9b4:	90 e0       	ldi	r25, 0x00	; 0
     9b6:	d8 01       	movw	r26, r16
     9b8:	12 96       	adiw	r26, 0x02	; 2
     9ba:	9c 93       	st	X, r25
     9bc:	8e 93       	st	-X, r24
     9be:	11 97       	sbiw	r26, 0x01	; 1
     9c0:	81 e8       	ldi	r24, 0x81	; 129
     9c2:	90 e0       	ldi	r25, 0x00	; 0
     9c4:	14 96       	adiw	r26, 0x04	; 4
     9c6:	9c 93       	st	X, r25
     9c8:	8e 93       	st	-X, r24
     9ca:	13 97       	sbiw	r26, 0x03	; 3
     9cc:	82 e8       	ldi	r24, 0x82	; 130
     9ce:	90 e0       	ldi	r25, 0x00	; 0
     9d0:	16 96       	adiw	r26, 0x06	; 6
     9d2:	9c 93       	st	X, r25
     9d4:	8e 93       	st	-X, r24
     9d6:	15 97       	sbiw	r26, 0x05	; 5
     9d8:	88 e8       	ldi	r24, 0x88	; 136
     9da:	90 e0       	ldi	r25, 0x00	; 0
     9dc:	18 96       	adiw	r26, 0x08	; 8
     9de:	9c 93       	st	X, r25
     9e0:	8e 93       	st	-X, r24
     9e2:	17 97       	sbiw	r26, 0x07	; 7
     9e4:	8a e8       	ldi	r24, 0x8A	; 138
     9e6:	90 e0       	ldi	r25, 0x00	; 0
     9e8:	1a 96       	adiw	r26, 0x0a	; 10
     9ea:	9c 93       	st	X, r25
     9ec:	8e 93       	st	-X, r24
     9ee:	19 97       	sbiw	r26, 0x09	; 9
     9f0:	e4 e8       	ldi	r30, 0x84	; 132
     9f2:	f0 e0       	ldi	r31, 0x00	; 0
     9f4:	1e 96       	adiw	r26, 0x0e	; 14
     9f6:	fc 93       	st	X, r31
     9f8:	ee 93       	st	-X, r30
     9fa:	1d 97       	sbiw	r26, 0x0d	; 13
     9fc:	11 82       	std	Z+1, r1	; 0x01
     9fe:	10 82       	st	Z, r1
     a00:	ef e6       	ldi	r30, 0x6F	; 111
     a02:	f0 e0       	ldi	r31, 0x00	; 0
     a04:	80 81       	ld	r24, Z
     a06:	81 60       	ori	r24, 0x01	; 1
     a08:	80 83       	st	Z, r24
     a0a:	ce 01       	movw	r24, r28
     a0c:	01 96       	adiw	r24, 0x01	; 1
     a0e:	0e 94 af 05 	call	0xb5e	; 0xb5e <_ZN12TimerCounterC1Ev>
     a12:	27 96       	adiw	r28, 0x07	; 7
     a14:	0f b6       	in	r0, 0x3f	; 63
     a16:	f8 94       	cli
     a18:	de bf       	out	0x3e, r29	; 62
     a1a:	0f be       	out	0x3f, r0	; 63
     a1c:	cd bf       	out	0x3d, r28	; 61
     a1e:	cf 91       	pop	r28
     a20:	df 91       	pop	r29
     a22:	1f 91       	pop	r17
     a24:	0f 91       	pop	r16
     a26:	08 95       	ret

00000a28 <_ZN6Timer2C1Ev>:
     a28:	0f 93       	push	r16
     a2a:	1f 93       	push	r17
     a2c:	df 93       	push	r29
     a2e:	cf 93       	push	r28
     a30:	cd b7       	in	r28, 0x3d	; 61
     a32:	de b7       	in	r29, 0x3e	; 62
     a34:	27 97       	sbiw	r28, 0x07	; 7
     a36:	0f b6       	in	r0, 0x3f	; 63
     a38:	f8 94       	cli
     a3a:	de bf       	out	0x3e, r29	; 62
     a3c:	0f be       	out	0x3f, r0	; 63
     a3e:	cd bf       	out	0x3d, r28	; 61
     a40:	8c 01       	movw	r16, r24
     a42:	0e 94 9a 05 	call	0xb34	; 0xb34 <_ZN12TimerCounterC2Ev>
     a46:	80 eb       	ldi	r24, 0xB0	; 176
     a48:	90 e0       	ldi	r25, 0x00	; 0
     a4a:	d8 01       	movw	r26, r16
     a4c:	12 96       	adiw	r26, 0x02	; 2
     a4e:	9c 93       	st	X, r25
     a50:	8e 93       	st	-X, r24
     a52:	11 97       	sbiw	r26, 0x01	; 1
     a54:	81 eb       	ldi	r24, 0xB1	; 177
     a56:	90 e0       	ldi	r25, 0x00	; 0
     a58:	14 96       	adiw	r26, 0x04	; 4
     a5a:	9c 93       	st	X, r25
     a5c:	8e 93       	st	-X, r24
     a5e:	13 97       	sbiw	r26, 0x03	; 3
     a60:	83 eb       	ldi	r24, 0xB3	; 179
     a62:	90 e0       	ldi	r25, 0x00	; 0
     a64:	18 96       	adiw	r26, 0x08	; 8
     a66:	9c 93       	st	X, r25
     a68:	8e 93       	st	-X, r24
     a6a:	17 97       	sbiw	r26, 0x07	; 7
     a6c:	84 eb       	ldi	r24, 0xB4	; 180
     a6e:	90 e0       	ldi	r25, 0x00	; 0
     a70:	1a 96       	adiw	r26, 0x0a	; 10
     a72:	9c 93       	st	X, r25
     a74:	8e 93       	st	-X, r24
     a76:	19 97       	sbiw	r26, 0x09	; 9
     a78:	e2 eb       	ldi	r30, 0xB2	; 178
     a7a:	f0 e0       	ldi	r31, 0x00	; 0
     a7c:	1c 96       	adiw	r26, 0x0c	; 12
     a7e:	fc 93       	st	X, r31
     a80:	ee 93       	st	-X, r30
     a82:	1b 97       	sbiw	r26, 0x0b	; 11
     a84:	10 82       	st	Z, r1
     a86:	e0 e7       	ldi	r30, 0x70	; 112
     a88:	f0 e0       	ldi	r31, 0x00	; 0
     a8a:	80 81       	ld	r24, Z
     a8c:	81 60       	ori	r24, 0x01	; 1
     a8e:	80 83       	st	Z, r24
     a90:	ce 01       	movw	r24, r28
     a92:	01 96       	adiw	r24, 0x01	; 1
     a94:	0e 94 af 05 	call	0xb5e	; 0xb5e <_ZN12TimerCounterC1Ev>
     a98:	27 96       	adiw	r28, 0x07	; 7
     a9a:	0f b6       	in	r0, 0x3f	; 63
     a9c:	f8 94       	cli
     a9e:	de bf       	out	0x3e, r29	; 62
     aa0:	0f be       	out	0x3f, r0	; 63
     aa2:	cd bf       	out	0x3d, r28	; 61
     aa4:	cf 91       	pop	r28
     aa6:	df 91       	pop	r29
     aa8:	1f 91       	pop	r17
     aaa:	0f 91       	pop	r16
     aac:	08 95       	ret

00000aae <_ZN6Timer2C2Ev>:
     aae:	0f 93       	push	r16
     ab0:	1f 93       	push	r17
     ab2:	df 93       	push	r29
     ab4:	cf 93       	push	r28
     ab6:	cd b7       	in	r28, 0x3d	; 61
     ab8:	de b7       	in	r29, 0x3e	; 62
     aba:	27 97       	sbiw	r28, 0x07	; 7
     abc:	0f b6       	in	r0, 0x3f	; 63
     abe:	f8 94       	cli
     ac0:	de bf       	out	0x3e, r29	; 62
     ac2:	0f be       	out	0x3f, r0	; 63
     ac4:	cd bf       	out	0x3d, r28	; 61
     ac6:	8c 01       	movw	r16, r24
     ac8:	0e 94 9a 05 	call	0xb34	; 0xb34 <_ZN12TimerCounterC2Ev>
     acc:	80 eb       	ldi	r24, 0xB0	; 176
     ace:	90 e0       	ldi	r25, 0x00	; 0
     ad0:	d8 01       	movw	r26, r16
     ad2:	12 96       	adiw	r26, 0x02	; 2
     ad4:	9c 93       	st	X, r25
     ad6:	8e 93       	st	-X, r24
     ad8:	11 97       	sbiw	r26, 0x01	; 1
     ada:	81 eb       	ldi	r24, 0xB1	; 177
     adc:	90 e0       	ldi	r25, 0x00	; 0
     ade:	14 96       	adiw	r26, 0x04	; 4
     ae0:	9c 93       	st	X, r25
     ae2:	8e 93       	st	-X, r24
     ae4:	13 97       	sbiw	r26, 0x03	; 3
     ae6:	83 eb       	ldi	r24, 0xB3	; 179
     ae8:	90 e0       	ldi	r25, 0x00	; 0
     aea:	18 96       	adiw	r26, 0x08	; 8
     aec:	9c 93       	st	X, r25
     aee:	8e 93       	st	-X, r24
     af0:	17 97       	sbiw	r26, 0x07	; 7
     af2:	84 eb       	ldi	r24, 0xB4	; 180
     af4:	90 e0       	ldi	r25, 0x00	; 0
     af6:	1a 96       	adiw	r26, 0x0a	; 10
     af8:	9c 93       	st	X, r25
     afa:	8e 93       	st	-X, r24
     afc:	19 97       	sbiw	r26, 0x09	; 9
     afe:	e2 eb       	ldi	r30, 0xB2	; 178
     b00:	f0 e0       	ldi	r31, 0x00	; 0
     b02:	1c 96       	adiw	r26, 0x0c	; 12
     b04:	fc 93       	st	X, r31
     b06:	ee 93       	st	-X, r30
     b08:	1b 97       	sbiw	r26, 0x0b	; 11
     b0a:	10 82       	st	Z, r1
     b0c:	e0 e7       	ldi	r30, 0x70	; 112
     b0e:	f0 e0       	ldi	r31, 0x00	; 0
     b10:	80 81       	ld	r24, Z
     b12:	81 60       	ori	r24, 0x01	; 1
     b14:	80 83       	st	Z, r24
     b16:	ce 01       	movw	r24, r28
     b18:	01 96       	adiw	r24, 0x01	; 1
     b1a:	0e 94 af 05 	call	0xb5e	; 0xb5e <_ZN12TimerCounterC1Ev>
     b1e:	27 96       	adiw	r28, 0x07	; 7
     b20:	0f b6       	in	r0, 0x3f	; 63
     b22:	f8 94       	cli
     b24:	de bf       	out	0x3e, r29	; 62
     b26:	0f be       	out	0x3f, r0	; 63
     b28:	cd bf       	out	0x3d, r28	; 61
     b2a:	cf 91       	pop	r28
     b2c:	df 91       	pop	r29
     b2e:	1f 91       	pop	r17
     b30:	0f 91       	pop	r16
     b32:	08 95       	ret

00000b34 <_ZN12TimerCounterC2Ev>:
     b34:	dc 01       	movw	r26, r24
     b36:	13 96       	adiw	r26, 0x03	; 3
     b38:	ed 91       	ld	r30, X+
     b3a:	fc 91       	ld	r31, X
     b3c:	14 97       	sbiw	r26, 0x04	; 4
     b3e:	10 82       	st	Z, r1
     b40:	11 96       	adiw	r26, 0x01	; 1
     b42:	ed 91       	ld	r30, X+
     b44:	fc 91       	ld	r31, X
     b46:	12 97       	sbiw	r26, 0x02	; 2
     b48:	10 82       	st	Z, r1
     b4a:	81 e0       	ldi	r24, 0x01	; 1
     b4c:	8c 93       	st	X, r24
     b4e:	13 96       	adiw	r26, 0x03	; 3
     b50:	ed 91       	ld	r30, X+
     b52:	fc 91       	ld	r31, X
     b54:	14 97       	sbiw	r26, 0x04	; 4
     b56:	80 81       	ld	r24, Z
     b58:	88 7f       	andi	r24, 0xF8	; 248
     b5a:	80 83       	st	Z, r24
     b5c:	08 95       	ret

00000b5e <_ZN12TimerCounterC1Ev>:
     b5e:	dc 01       	movw	r26, r24
     b60:	13 96       	adiw	r26, 0x03	; 3
     b62:	ed 91       	ld	r30, X+
     b64:	fc 91       	ld	r31, X
     b66:	14 97       	sbiw	r26, 0x04	; 4
     b68:	10 82       	st	Z, r1
     b6a:	11 96       	adiw	r26, 0x01	; 1
     b6c:	ed 91       	ld	r30, X+
     b6e:	fc 91       	ld	r31, X
     b70:	12 97       	sbiw	r26, 0x02	; 2
     b72:	10 82       	st	Z, r1
     b74:	81 e0       	ldi	r24, 0x01	; 1
     b76:	8c 93       	st	X, r24
     b78:	13 96       	adiw	r26, 0x03	; 3
     b7a:	ed 91       	ld	r30, X+
     b7c:	fc 91       	ld	r31, X
     b7e:	14 97       	sbiw	r26, 0x04	; 4
     b80:	80 81       	ld	r24, Z
     b82:	88 7f       	andi	r24, 0xF8	; 248
     b84:	80 83       	st	Z, r24
     b86:	08 95       	ret

00000b88 <_ZN12TimerCounter5startEv>:
     b88:	fc 01       	movw	r30, r24
     b8a:	a3 81       	ldd	r26, Z+3	; 0x03
     b8c:	b4 81       	ldd	r27, Z+4	; 0x04
     b8e:	8c 91       	ld	r24, X
     b90:	88 7f       	andi	r24, 0xF8	; 248
     b92:	8c 93       	st	X, r24
     b94:	a3 81       	ldd	r26, Z+3	; 0x03
     b96:	b4 81       	ldd	r27, Z+4	; 0x04
     b98:	9c 91       	ld	r25, X
     b9a:	80 81       	ld	r24, Z
     b9c:	87 70       	andi	r24, 0x07	; 7
     b9e:	89 2b       	or	r24, r25
     ba0:	8c 93       	st	X, r24
     ba2:	08 95       	ret

00000ba4 <_ZN12TimerCounter4stopEv>:
     ba4:	dc 01       	movw	r26, r24
     ba6:	13 96       	adiw	r26, 0x03	; 3
     ba8:	ed 91       	ld	r30, X+
     baa:	fc 91       	ld	r31, X
     bac:	14 97       	sbiw	r26, 0x04	; 4
     bae:	80 81       	ld	r24, Z
     bb0:	88 7f       	andi	r24, 0xF8	; 248
     bb2:	80 83       	st	Z, r24
     bb4:	08 95       	ret

00000bb6 <_ZN12TimerCounter12setPrescalerEc>:
     bb6:	fc 01       	movw	r30, r24
     bb8:	60 83       	st	Z, r22
     bba:	08 95       	ret

00000bbc <_ZN12TimerCounter13setNormalModeEv>:
     bbc:	dc 01       	movw	r26, r24
     bbe:	11 96       	adiw	r26, 0x01	; 1
     bc0:	ed 91       	ld	r30, X+
     bc2:	fc 91       	ld	r31, X
     bc4:	12 97       	sbiw	r26, 0x02	; 2
     bc6:	80 81       	ld	r24, Z
     bc8:	8c 7f       	andi	r24, 0xFC	; 252
     bca:	80 83       	st	Z, r24
     bcc:	13 96       	adiw	r26, 0x03	; 3
     bce:	ed 91       	ld	r30, X+
     bd0:	fc 91       	ld	r31, X
     bd2:	14 97       	sbiw	r26, 0x04	; 4
     bd4:	80 81       	ld	r24, Z
     bd6:	87 7e       	andi	r24, 0xE7	; 231
     bd8:	80 83       	st	Z, r24
     bda:	08 95       	ret

00000bdc <_ZN12TimerCounter10setCtcModeEv>:
     bdc:	dc 01       	movw	r26, r24
     bde:	11 96       	adiw	r26, 0x01	; 1
     be0:	ed 91       	ld	r30, X+
     be2:	fc 91       	ld	r31, X
     be4:	12 97       	sbiw	r26, 0x02	; 2
     be6:	80 81       	ld	r24, Z
     be8:	8c 7f       	andi	r24, 0xFC	; 252
     bea:	80 83       	st	Z, r24
     bec:	13 96       	adiw	r26, 0x03	; 3
     bee:	ed 91       	ld	r30, X+
     bf0:	fc 91       	ld	r31, X
     bf2:	14 97       	sbiw	r26, 0x04	; 4
     bf4:	80 81       	ld	r24, Z
     bf6:	88 61       	ori	r24, 0x18	; 24
     bf8:	80 83       	st	Z, r24
     bfa:	08 95       	ret

00000bfc <_ZN12TimerCounter10setPwmModeEv>:
     bfc:	dc 01       	movw	r26, r24
     bfe:	11 96       	adiw	r26, 0x01	; 1
     c00:	ed 91       	ld	r30, X+
     c02:	fc 91       	ld	r31, X
     c04:	12 97       	sbiw	r26, 0x02	; 2
     c06:	80 81       	ld	r24, Z
     c08:	83 60       	ori	r24, 0x03	; 3
     c0a:	80 83       	st	Z, r24
     c0c:	13 96       	adiw	r26, 0x03	; 3
     c0e:	ed 91       	ld	r30, X+
     c10:	fc 91       	ld	r31, X
     c12:	14 97       	sbiw	r26, 0x04	; 4
     c14:	80 81       	ld	r24, Z
     c16:	87 7e       	andi	r24, 0xE7	; 231
     c18:	80 83       	st	Z, r24
     c1a:	08 95       	ret

00000c1c <_ZN12TimerCounter10setPwmModeEh>:
     c1c:	dc 01       	movw	r26, r24
     c1e:	11 96       	adiw	r26, 0x01	; 1
     c20:	ed 91       	ld	r30, X+
     c22:	fc 91       	ld	r31, X
     c24:	12 97       	sbiw	r26, 0x02	; 2
     c26:	80 81       	ld	r24, Z
     c28:	8c 7f       	andi	r24, 0xFC	; 252
     c2a:	80 83       	st	Z, r24
     c2c:	11 96       	adiw	r26, 0x01	; 1
     c2e:	ed 91       	ld	r30, X+
     c30:	fc 91       	ld	r31, X
     c32:	12 97       	sbiw	r26, 0x02	; 2
     c34:	80 81       	ld	r24, Z
     c36:	63 70       	andi	r22, 0x03	; 3
     c38:	86 2b       	or	r24, r22
     c3a:	80 83       	st	Z, r24
     c3c:	13 96       	adiw	r26, 0x03	; 3
     c3e:	ed 91       	ld	r30, X+
     c40:	fc 91       	ld	r31, X
     c42:	14 97       	sbiw	r26, 0x04	; 4
     c44:	80 81       	ld	r24, Z
     c46:	87 7e       	andi	r24, 0xE7	; 231
     c48:	80 83       	st	Z, r24
     c4a:	08 95       	ret

00000c4c <_ZN12TimerCounter19outputNotConnectedAEv>:
     c4c:	dc 01       	movw	r26, r24
     c4e:	11 96       	adiw	r26, 0x01	; 1
     c50:	ed 91       	ld	r30, X+
     c52:	fc 91       	ld	r31, X
     c54:	12 97       	sbiw	r26, 0x02	; 2
     c56:	80 81       	ld	r24, Z
     c58:	8f 73       	andi	r24, 0x3F	; 63
     c5a:	80 83       	st	Z, r24
     c5c:	08 95       	ret

00000c5e <_ZN12TimerCounter19outputNotConnectedBEv>:
     c5e:	dc 01       	movw	r26, r24
     c60:	13 96       	adiw	r26, 0x03	; 3
     c62:	ed 91       	ld	r30, X+
     c64:	fc 91       	ld	r31, X
     c66:	14 97       	sbiw	r26, 0x04	; 4
     c68:	80 81       	ld	r24, Z
     c6a:	8f 7c       	andi	r24, 0xCF	; 207
     c6c:	80 83       	st	Z, r24
     c6e:	08 95       	ret

00000c70 <_ZN12TimerCounter16outputNotInvertAEv>:
     c70:	dc 01       	movw	r26, r24
     c72:	11 96       	adiw	r26, 0x01	; 1
     c74:	ed 91       	ld	r30, X+
     c76:	fc 91       	ld	r31, X
     c78:	12 97       	sbiw	r26, 0x02	; 2
     c7a:	80 81       	ld	r24, Z
     c7c:	8f 73       	andi	r24, 0x3F	; 63
     c7e:	80 83       	st	Z, r24
     c80:	11 96       	adiw	r26, 0x01	; 1
     c82:	ed 91       	ld	r30, X+
     c84:	fc 91       	ld	r31, X
     c86:	12 97       	sbiw	r26, 0x02	; 2
     c88:	80 81       	ld	r24, Z
     c8a:	80 68       	ori	r24, 0x80	; 128
     c8c:	80 83       	st	Z, r24
     c8e:	08 95       	ret

00000c90 <_ZN12TimerCounter16outputNotInvertBEv>:
     c90:	dc 01       	movw	r26, r24
     c92:	11 96       	adiw	r26, 0x01	; 1
     c94:	ed 91       	ld	r30, X+
     c96:	fc 91       	ld	r31, X
     c98:	12 97       	sbiw	r26, 0x02	; 2
     c9a:	80 81       	ld	r24, Z
     c9c:	8f 7c       	andi	r24, 0xCF	; 207
     c9e:	80 83       	st	Z, r24
     ca0:	11 96       	adiw	r26, 0x01	; 1
     ca2:	ed 91       	ld	r30, X+
     ca4:	fc 91       	ld	r31, X
     ca6:	12 97       	sbiw	r26, 0x02	; 2
     ca8:	80 81       	ld	r24, Z
     caa:	80 83       	st	Z, r24
     cac:	08 95       	ret

00000cae <_ZN12TimerCounter13outputInvertAEv>:
     cae:	dc 01       	movw	r26, r24
     cb0:	11 96       	adiw	r26, 0x01	; 1
     cb2:	ed 91       	ld	r30, X+
     cb4:	fc 91       	ld	r31, X
     cb6:	12 97       	sbiw	r26, 0x02	; 2
     cb8:	80 81       	ld	r24, Z
     cba:	8f 73       	andi	r24, 0x3F	; 63
     cbc:	80 83       	st	Z, r24
     cbe:	11 96       	adiw	r26, 0x01	; 1
     cc0:	ed 91       	ld	r30, X+
     cc2:	fc 91       	ld	r31, X
     cc4:	12 97       	sbiw	r26, 0x02	; 2
     cc6:	80 81       	ld	r24, Z
     cc8:	80 6c       	ori	r24, 0xC0	; 192
     cca:	80 83       	st	Z, r24
     ccc:	08 95       	ret

00000cce <_ZN12TimerCounter13outputInvertBEv>:
     cce:	dc 01       	movw	r26, r24
     cd0:	11 96       	adiw	r26, 0x01	; 1
     cd2:	ed 91       	ld	r30, X+
     cd4:	fc 91       	ld	r31, X
     cd6:	12 97       	sbiw	r26, 0x02	; 2
     cd8:	80 81       	ld	r24, Z
     cda:	8f 7c       	andi	r24, 0xCF	; 207
     cdc:	80 83       	st	Z, r24
     cde:	11 96       	adiw	r26, 0x01	; 1
     ce0:	ed 91       	ld	r30, X+
     ce2:	fc 91       	ld	r31, X
     ce4:	12 97       	sbiw	r26, 0x02	; 2
     ce6:	80 81       	ld	r24, Z
     ce8:	80 63       	ori	r24, 0x30	; 48
     cea:	80 83       	st	Z, r24
     cec:	08 95       	ret

00000cee <_Z13byteModelTestv>:
     cee:	08 95       	ret

00000cf0 <_Z12Tds18b20Testv>:
     cf0:	08 95       	ret

00000cf2 <_ZN9ByteModelC2Ev>:
     cf2:	fc 01       	movw	r30, r24
     cf4:	84 e3       	ldi	r24, 0x34	; 52
     cf6:	91 e0       	ldi	r25, 0x01	; 1
     cf8:	91 83       	std	Z+1, r25	; 0x01
     cfa:	80 83       	st	Z, r24
     cfc:	12 82       	std	Z+2, r1	; 0x02
     cfe:	08 95       	ret

00000d00 <_ZN9ByteModelC1Ev>:
     d00:	fc 01       	movw	r30, r24
     d02:	84 e3       	ldi	r24, 0x34	; 52
     d04:	91 e0       	ldi	r25, 0x01	; 1
     d06:	91 83       	std	Z+1, r25	; 0x01
     d08:	80 83       	st	Z, r24
     d0a:	12 82       	std	Z+2, r1	; 0x02
     d0c:	08 95       	ret

00000d0e <_ZN9ByteModel3addEh>:
     d0e:	dc 01       	movw	r26, r24
     d10:	12 96       	adiw	r26, 0x02	; 2
     d12:	8c 91       	ld	r24, X
     d14:	12 97       	sbiw	r26, 0x02	; 2
     d16:	8a 30       	cpi	r24, 0x0A	; 10
     d18:	39 f0       	breq	.+14     	; 0xd28 <_ZN9ByteModel3addEh+0x1a>
     d1a:	fd 01       	movw	r30, r26
     d1c:	e8 0f       	add	r30, r24
     d1e:	f1 1d       	adc	r31, r1
     d20:	63 83       	std	Z+3, r22	; 0x03
     d22:	8f 5f       	subi	r24, 0xFF	; 255
     d24:	12 96       	adiw	r26, 0x02	; 2
     d26:	8c 93       	st	X, r24
     d28:	08 95       	ret

00000d2a <_ZN9ByteModel3getEh>:
     d2a:	fc 01       	movw	r30, r24
     d2c:	82 81       	ldd	r24, Z+2	; 0x02
     d2e:	68 17       	cp	r22, r24
     d30:	10 f0       	brcs	.+4      	; 0xd36 <_ZN9ByteModel3getEh+0xc>
     d32:	80 e0       	ldi	r24, 0x00	; 0
     d34:	08 95       	ret
     d36:	e6 0f       	add	r30, r22
     d38:	f1 1d       	adc	r31, r1
     d3a:	83 81       	ldd	r24, Z+3	; 0x03
     d3c:	08 95       	ret

00000d3e <_ZN9ByteModel10fromStringEPc>:
     d3e:	6f 92       	push	r6
     d40:	7f 92       	push	r7
     d42:	8f 92       	push	r8
     d44:	9f 92       	push	r9
     d46:	af 92       	push	r10
     d48:	bf 92       	push	r11
     d4a:	cf 92       	push	r12
     d4c:	df 92       	push	r13
     d4e:	ef 92       	push	r14
     d50:	ff 92       	push	r15
     d52:	0f 93       	push	r16
     d54:	1f 93       	push	r17
     d56:	df 93       	push	r29
     d58:	cf 93       	push	r28
     d5a:	00 d0       	rcall	.+0      	; 0xd5c <_ZN9ByteModel10fromStringEPc+0x1e>
     d5c:	0f 92       	push	r0
     d5e:	cd b7       	in	r28, 0x3d	; 61
     d60:	de b7       	in	r29, 0x3e	; 62
     d62:	7c 01       	movw	r14, r24
     d64:	5b 01       	movw	r10, r22
     d66:	dc 01       	movw	r26, r24
     d68:	12 96       	adiw	r26, 0x02	; 2
     d6a:	1c 92       	st	X, r1
     d6c:	fe 01       	movw	r30, r28
     d6e:	31 96       	adiw	r30, 0x01	; 1
     d70:	83 e0       	ldi	r24, 0x03	; 3
     d72:	df 01       	movw	r26, r30
     d74:	1d 92       	st	X+, r1
     d76:	8a 95       	dec	r24
     d78:	e9 f7       	brne	.-6      	; 0xd74 <_ZN9ByteModel10fromStringEPc+0x36>
     d7a:	cc 24       	eor	r12, r12
     d7c:	01 c0       	rjmp	.+2      	; 0xd80 <_ZN9ByteModel10fromStringEPc+0x42>
     d7e:	c3 94       	inc	r12
     d80:	f5 01       	movw	r30, r10
     d82:	ec 0d       	add	r30, r12
     d84:	f1 1d       	adc	r31, r1
     d86:	80 81       	ld	r24, Z
     d88:	88 23       	and	r24, r24
     d8a:	c9 f7       	brne	.-14     	; 0xd7e <_ZN9ByteModel10fromStringEPc+0x40>
     d8c:	37 01       	movw	r6, r14
     d8e:	dd 24       	eor	r13, r13
     d90:	4e 01       	movw	r8, r28
     d92:	08 94       	sec
     d94:	81 1c       	adc	r8, r1
     d96:	91 1c       	adc	r9, r1
     d98:	1a c0       	rjmp	.+52     	; 0xdce <_ZN9ByteModel10fromStringEPc+0x90>
     d9a:	f5 01       	movw	r30, r10
     d9c:	ed 0d       	add	r30, r13
     d9e:	f1 1d       	adc	r31, r1
     da0:	80 81       	ld	r24, Z
     da2:	89 83       	std	Y+1, r24	; 0x01
     da4:	81 81       	ldd	r24, Z+1	; 0x01
     da6:	8a 83       	std	Y+2, r24	; 0x02
     da8:	f7 01       	movw	r30, r14
     daa:	82 81       	ldd	r24, Z+2	; 0x02
     dac:	08 2f       	mov	r16, r24
     dae:	10 e0       	ldi	r17, 0x00	; 0
     db0:	c3 01       	movw	r24, r6
     db2:	b4 01       	movw	r22, r8
     db4:	0e 94 46 07 	call	0xe8c	; 0xe8c <_ZN6IModel5atoi2EPc>
     db8:	0e 0d       	add	r16, r14
     dba:	1f 1d       	adc	r17, r15
     dbc:	d8 01       	movw	r26, r16
     dbe:	13 96       	adiw	r26, 0x03	; 3
     dc0:	8c 93       	st	X, r24
     dc2:	f7 01       	movw	r30, r14
     dc4:	82 81       	ldd	r24, Z+2	; 0x02
     dc6:	8f 5f       	subi	r24, 0xFF	; 255
     dc8:	82 83       	std	Z+2, r24	; 0x02
     dca:	f2 e0       	ldi	r31, 0x02	; 2
     dcc:	df 0e       	add	r13, r31
     dce:	dc 14       	cp	r13, r12
     dd0:	20 f3       	brcs	.-56     	; 0xd9a <_ZN9ByteModel10fromStringEPc+0x5c>
     dd2:	0f 90       	pop	r0
     dd4:	0f 90       	pop	r0
     dd6:	0f 90       	pop	r0
     dd8:	cf 91       	pop	r28
     dda:	df 91       	pop	r29
     ddc:	1f 91       	pop	r17
     dde:	0f 91       	pop	r16
     de0:	ff 90       	pop	r15
     de2:	ef 90       	pop	r14
     de4:	df 90       	pop	r13
     de6:	cf 90       	pop	r12
     de8:	bf 90       	pop	r11
     dea:	af 90       	pop	r10
     dec:	9f 90       	pop	r9
     dee:	8f 90       	pop	r8
     df0:	7f 90       	pop	r7
     df2:	6f 90       	pop	r6
     df4:	08 95       	ret

00000df6 <_ZN9ByteModel8toStringEPc>:
     df6:	9f 92       	push	r9
     df8:	af 92       	push	r10
     dfa:	bf 92       	push	r11
     dfc:	cf 92       	push	r12
     dfe:	df 92       	push	r13
     e00:	ef 92       	push	r14
     e02:	ff 92       	push	r15
     e04:	0f 93       	push	r16
     e06:	1f 93       	push	r17
     e08:	df 93       	push	r29
     e0a:	cf 93       	push	r28
     e0c:	00 d0       	rcall	.+0      	; 0xe0e <_ZN9ByteModel8toStringEPc+0x18>
     e0e:	0f 92       	push	r0
     e10:	cd b7       	in	r28, 0x3d	; 61
     e12:	de b7       	in	r29, 0x3e	; 62
     e14:	8c 01       	movw	r16, r24
     e16:	7b 01       	movw	r14, r22
     e18:	fe 01       	movw	r30, r28
     e1a:	31 96       	adiw	r30, 0x01	; 1
     e1c:	83 e0       	ldi	r24, 0x03	; 3
     e1e:	df 01       	movw	r26, r30
     e20:	1d 92       	st	X+, r1
     e22:	8a 95       	dec	r24
     e24:	e9 f7       	brne	.-6      	; 0xe20 <_ZN9ByteModel8toStringEPc+0x2a>
     e26:	db 01       	movw	r26, r22
     e28:	1c 92       	st	X, r1
     e2a:	90 2e       	mov	r9, r16
     e2c:	a1 2e       	mov	r10, r17
     e2e:	dd 24       	eor	r13, r13
     e30:	be 2e       	mov	r11, r30
     e32:	cf 2e       	mov	r12, r31
     e34:	17 c0       	rjmp	.+46     	; 0xe64 <_ZN9ByteModel8toStringEPc+0x6e>
     e36:	f8 01       	movw	r30, r16
     e38:	ed 0d       	add	r30, r13
     e3a:	f1 1d       	adc	r31, r1
     e3c:	83 81       	ldd	r24, Z+3	; 0x03
     e3e:	90 e0       	ldi	r25, 0x00	; 0
     e40:	6b 2d       	mov	r22, r11
     e42:	7c 2d       	mov	r23, r12
     e44:	40 e1       	ldi	r20, 0x10	; 16
     e46:	50 e0       	ldi	r21, 0x00	; 0
     e48:	0e 94 67 13 	call	0x26ce	; 0x26ce <utoa>
     e4c:	89 2d       	mov	r24, r9
     e4e:	9a 2d       	mov	r25, r10
     e50:	6b 2d       	mov	r22, r11
     e52:	7c 2d       	mov	r23, r12
     e54:	0e 94 63 07 	call	0xec6	; 0xec6 <_ZN6IModel7addZeroEPc>
     e58:	c7 01       	movw	r24, r14
     e5a:	6b 2d       	mov	r22, r11
     e5c:	7c 2d       	mov	r23, r12
     e5e:	0e 94 34 13 	call	0x2668	; 0x2668 <strcat>
     e62:	d3 94       	inc	r13
     e64:	f8 01       	movw	r30, r16
     e66:	82 81       	ldd	r24, Z+2	; 0x02
     e68:	d8 16       	cp	r13, r24
     e6a:	28 f3       	brcs	.-54     	; 0xe36 <_ZN9ByteModel8toStringEPc+0x40>
     e6c:	c7 01       	movw	r24, r14
     e6e:	0f 90       	pop	r0
     e70:	0f 90       	pop	r0
     e72:	0f 90       	pop	r0
     e74:	cf 91       	pop	r28
     e76:	df 91       	pop	r29
     e78:	1f 91       	pop	r17
     e7a:	0f 91       	pop	r16
     e7c:	ff 90       	pop	r15
     e7e:	ef 90       	pop	r14
     e80:	df 90       	pop	r13
     e82:	cf 90       	pop	r12
     e84:	bf 90       	pop	r11
     e86:	af 90       	pop	r10
     e88:	9f 90       	pop	r9
     e8a:	08 95       	ret

00000e8c <_ZN6IModel5atoi2EPc>:
     e8c:	fb 01       	movw	r30, r22
     e8e:	80 81       	ld	r24, Z
     e90:	81 36       	cpi	r24, 0x61	; 97
     e92:	08 f0       	brcs	.+2      	; 0xe96 <_ZN6IModel5atoi2EPc+0xa>
     e94:	84 51       	subi	r24, 0x14	; 20
     e96:	89 33       	cpi	r24, 0x39	; 57
     e98:	08 f0       	brcs	.+2      	; 0xe9c <_ZN6IModel5atoi2EPc+0x10>
     e9a:	87 50       	subi	r24, 0x07	; 7
     e9c:	61 81       	ldd	r22, Z+1	; 0x01
     e9e:	61 36       	cpi	r22, 0x61	; 97
     ea0:	08 f0       	brcs	.+2      	; 0xea4 <_ZN6IModel5atoi2EPc+0x18>
     ea2:	64 51       	subi	r22, 0x14	; 20
     ea4:	69 33       	cpi	r22, 0x39	; 57
     ea6:	08 f0       	brcs	.+2      	; 0xeaa <_ZN6IModel5atoi2EPc+0x1e>
     ea8:	67 50       	subi	r22, 0x07	; 7
     eaa:	60 53       	subi	r22, 0x30	; 48
     eac:	82 95       	swap	r24
     eae:	80 7f       	andi	r24, 0xF0	; 240
     eb0:	86 2b       	or	r24, r22
     eb2:	08 95       	ret

00000eb4 <_ZN6IModel14convertHalfHexEh>:
     eb4:	61 36       	cpi	r22, 0x61	; 97
     eb6:	08 f0       	brcs	.+2      	; 0xeba <_ZN6IModel14convertHalfHexEh+0x6>
     eb8:	64 51       	subi	r22, 0x14	; 20
     eba:	69 33       	cpi	r22, 0x39	; 57
     ebc:	08 f0       	brcs	.+2      	; 0xec0 <_ZN6IModel14convertHalfHexEh+0xc>
     ebe:	67 50       	subi	r22, 0x07	; 7
     ec0:	86 2f       	mov	r24, r22
     ec2:	80 53       	subi	r24, 0x30	; 48
     ec4:	08 95       	ret

00000ec6 <_ZN6IModel7addZeroEPc>:
     ec6:	fb 01       	movw	r30, r22
     ec8:	81 81       	ldd	r24, Z+1	; 0x01
     eca:	88 23       	and	r24, r24
     ecc:	21 f4       	brne	.+8      	; 0xed6 <_ZN6IModel7addZeroEPc+0x10>
     ece:	80 81       	ld	r24, Z
     ed0:	81 83       	std	Z+1, r24	; 0x01
     ed2:	80 e3       	ldi	r24, 0x30	; 48
     ed4:	80 83       	st	Z, r24
     ed6:	08 95       	ret

00000ed8 <_ZN8Tds18b208InitiateEv>:
     ed8:	88 b1       	in	r24, 0x08	; 8
     eda:	21 e0       	ldi	r18, 0x01	; 1
     edc:	30 e0       	ldi	r19, 0x00	; 0
     ede:	00 90 48 01 	lds	r0, 0x0148
     ee2:	02 c0       	rjmp	.+4      	; 0xee8 <_ZN8Tds18b208InitiateEv+0x10>
     ee4:	22 0f       	add	r18, r18
     ee6:	33 1f       	adc	r19, r19
     ee8:	0a 94       	dec	r0
     eea:	e2 f7       	brpl	.-8      	; 0xee4 <_ZN8Tds18b208InitiateEv+0xc>
     eec:	82 2b       	or	r24, r18
     eee:	88 b9       	out	0x08, r24	; 8
     ef0:	87 b1       	in	r24, 0x07	; 7
     ef2:	28 2b       	or	r18, r24
     ef4:	27 b9       	out	0x07, r18	; 7
     ef6:	80 e0       	ldi	r24, 0x00	; 0
     ef8:	90 e0       	ldi	r25, 0x00	; 0
     efa:	35 e0       	ldi	r19, 0x05	; 5
     efc:	23 2f       	mov	r18, r19
     efe:	2a 95       	dec	r18
     f00:	f1 f7       	brne	.-4      	; 0xefe <_ZN8Tds18b208InitiateEv+0x26>
     f02:	01 96       	adiw	r24, 0x01	; 1
     f04:	21 e0       	ldi	r18, 0x01	; 1
     f06:	84 3f       	cpi	r24, 0xF4	; 244
     f08:	92 07       	cpc	r25, r18
     f0a:	c1 f7       	brne	.-16     	; 0xefc <_ZN8Tds18b208InitiateEv+0x24>
     f0c:	08 95       	ret

00000f0e <_ZN8Tds18b205WaitUEj>:
     f0e:	80 e0       	ldi	r24, 0x00	; 0
     f10:	90 e0       	ldi	r25, 0x00	; 0
     f12:	35 e0       	ldi	r19, 0x05	; 5
     f14:	04 c0       	rjmp	.+8      	; 0xf1e <_ZN8Tds18b205WaitUEj+0x10>
     f16:	23 2f       	mov	r18, r19
     f18:	2a 95       	dec	r18
     f1a:	f1 f7       	brne	.-4      	; 0xf18 <_ZN8Tds18b205WaitUEj+0xa>
     f1c:	01 96       	adiw	r24, 0x01	; 1
     f1e:	86 17       	cp	r24, r22
     f20:	97 07       	cpc	r25, r23
     f22:	c8 f3       	brcs	.-14     	; 0xf16 <_ZN8Tds18b205WaitUEj+0x8>
     f24:	08 95       	ret

00000f26 <_ZN8Tds18b2014Reset_PresenceEv>:
     f26:	0e 94 6c 07 	call	0xed8	; 0xed8 <_ZN8Tds18b208InitiateEv>
     f2a:	28 b1       	in	r18, 0x08	; 8
     f2c:	60 91 48 01 	lds	r22, 0x0148
     f30:	81 e0       	ldi	r24, 0x01	; 1
     f32:	90 e0       	ldi	r25, 0x00	; 0
     f34:	06 2e       	mov	r0, r22
     f36:	02 c0       	rjmp	.+4      	; 0xf3c <_ZN8Tds18b2014Reset_PresenceEv+0x16>
     f38:	88 0f       	add	r24, r24
     f3a:	99 1f       	adc	r25, r25
     f3c:	0a 94       	dec	r0
     f3e:	e2 f7       	brpl	.-8      	; 0xf38 <_ZN8Tds18b2014Reset_PresenceEv+0x12>
     f40:	98 2f       	mov	r25, r24
     f42:	48 2f       	mov	r20, r24
     f44:	40 95       	com	r20
     f46:	24 23       	and	r18, r20
     f48:	28 b9       	out	0x08, r18	; 8
     f4a:	20 e0       	ldi	r18, 0x00	; 0
     f4c:	30 e0       	ldi	r19, 0x00	; 0
     f4e:	55 e0       	ldi	r21, 0x05	; 5
     f50:	85 2f       	mov	r24, r21
     f52:	8a 95       	dec	r24
     f54:	f1 f7       	brne	.-4      	; 0xf52 <_ZN8Tds18b2014Reset_PresenceEv+0x2c>
     f56:	2f 5f       	subi	r18, 0xFF	; 255
     f58:	3f 4f       	sbci	r19, 0xFF	; 255
     f5a:	82 e0       	ldi	r24, 0x02	; 2
     f5c:	28 35       	cpi	r18, 0x58	; 88
     f5e:	38 07       	cpc	r19, r24
     f60:	b9 f7       	brne	.-18     	; 0xf50 <_ZN8Tds18b2014Reset_PresenceEv+0x2a>
     f62:	88 b1       	in	r24, 0x08	; 8
     f64:	98 2b       	or	r25, r24
     f66:	98 b9       	out	0x08, r25	; 8
     f68:	87 b1       	in	r24, 0x07	; 7
     f6a:	48 23       	and	r20, r24
     f6c:	47 b9       	out	0x07, r20	; 7
     f6e:	80 e0       	ldi	r24, 0x00	; 0
     f70:	90 e0       	ldi	r25, 0x00	; 0
     f72:	35 e0       	ldi	r19, 0x05	; 5
     f74:	23 2f       	mov	r18, r19
     f76:	2a 95       	dec	r18
     f78:	f1 f7       	brne	.-4      	; 0xf76 <_ZN8Tds18b2014Reset_PresenceEv+0x50>
     f7a:	01 96       	adiw	r24, 0x01	; 1
     f7c:	8f 30       	cpi	r24, 0x0F	; 15
     f7e:	91 05       	cpc	r25, r1
     f80:	c9 f7       	brne	.-14     	; 0xf74 <_ZN8Tds18b2014Reset_PresenceEv+0x4e>
     f82:	2d e1       	ldi	r18, 0x1D	; 29
     f84:	31 e0       	ldi	r19, 0x01	; 1
     f86:	45 e0       	ldi	r20, 0x05	; 5
     f88:	21 50       	subi	r18, 0x01	; 1
     f8a:	30 40       	sbci	r19, 0x00	; 0
     f8c:	84 2f       	mov	r24, r20
     f8e:	8a 95       	dec	r24
     f90:	f1 f7       	brne	.-4      	; 0xf8e <_ZN8Tds18b2014Reset_PresenceEv+0x68>
     f92:	86 b1       	in	r24, 0x06	; 6
     f94:	90 e0       	ldi	r25, 0x00	; 0
     f96:	06 2e       	mov	r0, r22
     f98:	02 c0       	rjmp	.+4      	; 0xf9e <_ZN8Tds18b2014Reset_PresenceEv+0x78>
     f9a:	95 95       	asr	r25
     f9c:	87 95       	ror	r24
     f9e:	0a 94       	dec	r0
     fa0:	e2 f7       	brpl	.-8      	; 0xf9a <_ZN8Tds18b2014Reset_PresenceEv+0x74>
     fa2:	80 ff       	sbrs	r24, 0
     fa4:	04 c0       	rjmp	.+8      	; 0xfae <_ZN8Tds18b2014Reset_PresenceEv+0x88>
     fa6:	21 15       	cp	r18, r1
     fa8:	31 05       	cpc	r19, r1
     faa:	c9 f0       	breq	.+50     	; 0xfde <_ZN8Tds18b2014Reset_PresenceEv+0xb8>
     fac:	ed cf       	rjmp	.-38     	; 0xf88 <_ZN8Tds18b2014Reset_PresenceEv+0x62>
     fae:	21 15       	cp	r18, r1
     fb0:	31 05       	cpc	r19, r1
     fb2:	a9 f0       	breq	.+42     	; 0xfde <_ZN8Tds18b2014Reset_PresenceEv+0xb8>
     fb4:	20 e0       	ldi	r18, 0x00	; 0
     fb6:	30 e0       	ldi	r19, 0x00	; 0
     fb8:	45 e0       	ldi	r20, 0x05	; 5
     fba:	05 c0       	rjmp	.+10     	; 0xfc6 <_ZN8Tds18b2014Reset_PresenceEv+0xa0>
     fbc:	2f 5f       	subi	r18, 0xFF	; 255
     fbe:	3f 4f       	sbci	r19, 0xFF	; 255
     fc0:	84 2f       	mov	r24, r20
     fc2:	8a 95       	dec	r24
     fc4:	f1 f7       	brne	.-4      	; 0xfc2 <_ZN8Tds18b2014Reset_PresenceEv+0x9c>
     fc6:	86 b1       	in	r24, 0x06	; 6
     fc8:	90 e0       	ldi	r25, 0x00	; 0
     fca:	06 2e       	mov	r0, r22
     fcc:	02 c0       	rjmp	.+4      	; 0xfd2 <_ZN8Tds18b2014Reset_PresenceEv+0xac>
     fce:	95 95       	asr	r25
     fd0:	87 95       	ror	r24
     fd2:	0a 94       	dec	r0
     fd4:	e2 f7       	brpl	.-8      	; 0xfce <_ZN8Tds18b2014Reset_PresenceEv+0xa8>
     fd6:	80 ff       	sbrs	r24, 0
     fd8:	f1 cf       	rjmp	.-30     	; 0xfbc <_ZN8Tds18b2014Reset_PresenceEv+0x96>
     fda:	80 e0       	ldi	r24, 0x00	; 0
     fdc:	01 c0       	rjmp	.+2      	; 0xfe0 <_ZN8Tds18b2014Reset_PresenceEv+0xba>
     fde:	8f ef       	ldi	r24, 0xFF	; 255
     fe0:	40 ee       	ldi	r20, 0xE0	; 224
     fe2:	51 e0       	ldi	r21, 0x01	; 1
     fe4:	42 1b       	sub	r20, r18
     fe6:	53 0b       	sbc	r21, r19
     fe8:	20 e0       	ldi	r18, 0x00	; 0
     fea:	30 e0       	ldi	r19, 0x00	; 0
     fec:	65 e0       	ldi	r22, 0x05	; 5
     fee:	05 c0       	rjmp	.+10     	; 0xffa <_ZN8Tds18b2014Reset_PresenceEv+0xd4>
     ff0:	96 2f       	mov	r25, r22
     ff2:	9a 95       	dec	r25
     ff4:	f1 f7       	brne	.-4      	; 0xff2 <_ZN8Tds18b2014Reset_PresenceEv+0xcc>
     ff6:	2f 5f       	subi	r18, 0xFF	; 255
     ff8:	3f 4f       	sbci	r19, 0xFF	; 255
     ffa:	24 17       	cp	r18, r20
     ffc:	35 07       	cpc	r19, r21
     ffe:	c0 f3       	brcs	.-16     	; 0xff0 <_ZN8Tds18b2014Reset_PresenceEv+0xca>
    1000:	08 95       	ret

00001002 <_ZN8Tds18b208WriteBitEh>:
    1002:	27 b1       	in	r18, 0x07	; 7
    1004:	81 e0       	ldi	r24, 0x01	; 1
    1006:	90 e0       	ldi	r25, 0x00	; 0
    1008:	00 90 48 01 	lds	r0, 0x0148
    100c:	02 c0       	rjmp	.+4      	; 0x1012 <_ZN8Tds18b208WriteBitEh+0x10>
    100e:	88 0f       	add	r24, r24
    1010:	99 1f       	adc	r25, r25
    1012:	0a 94       	dec	r0
    1014:	e2 f7       	brpl	.-8      	; 0x100e <_ZN8Tds18b208WriteBitEh+0xc>
    1016:	98 2f       	mov	r25, r24
    1018:	28 2b       	or	r18, r24
    101a:	27 b9       	out	0x07, r18	; 7
    101c:	88 b1       	in	r24, 0x08	; 8
    101e:	29 2f       	mov	r18, r25
    1020:	20 95       	com	r18
    1022:	82 23       	and	r24, r18
    1024:	88 b9       	out	0x08, r24	; 8
    1026:	66 23       	and	r22, r22
    1028:	71 f0       	breq	.+28     	; 0x1046 <_ZN8Tds18b208WriteBitEh+0x44>
    102a:	8a e1       	ldi	r24, 0x1A	; 26
    102c:	8a 95       	dec	r24
    102e:	f1 f7       	brne	.-4      	; 0x102c <_ZN8Tds18b208WriteBitEh+0x2a>
    1030:	88 b1       	in	r24, 0x08	; 8
    1032:	98 2b       	or	r25, r24
    1034:	98 b9       	out	0x08, r25	; 8
    1036:	87 b1       	in	r24, 0x07	; 7
    1038:	28 23       	and	r18, r24
    103a:	27 b9       	out	0x07, r18	; 7
    103c:	88 e2       	ldi	r24, 0x28	; 40
    103e:	91 e0       	ldi	r25, 0x01	; 1
    1040:	01 97       	sbiw	r24, 0x01	; 1
    1042:	f1 f7       	brne	.-4      	; 0x1040 <_ZN8Tds18b208WriteBitEh+0x3e>
    1044:	08 95       	ret
    1046:	ec e2       	ldi	r30, 0x2C	; 44
    1048:	f1 e0       	ldi	r31, 0x01	; 1
    104a:	31 97       	sbiw	r30, 0x01	; 1
    104c:	f1 f7       	brne	.-4      	; 0x104a <_ZN8Tds18b208WriteBitEh+0x48>
    104e:	88 b1       	in	r24, 0x08	; 8
    1050:	98 2b       	or	r25, r24
    1052:	98 b9       	out	0x08, r25	; 8
    1054:	87 b1       	in	r24, 0x07	; 7
    1056:	28 23       	and	r18, r24
    1058:	27 b9       	out	0x07, r18	; 7
    105a:	08 95       	ret

0000105c <_ZN8Tds18b209WriteByteEh>:
    105c:	cf 92       	push	r12
    105e:	df 92       	push	r13
    1060:	ef 92       	push	r14
    1062:	ff 92       	push	r15
    1064:	0f 93       	push	r16
    1066:	1f 93       	push	r17
    1068:	cf 93       	push	r28
    106a:	df 93       	push	r29
    106c:	8c 01       	movw	r16, r24
    106e:	d6 2e       	mov	r13, r22
    1070:	c0 e0       	ldi	r28, 0x00	; 0
    1072:	d0 e0       	ldi	r29, 0x00	; 0
    1074:	9a e1       	ldi	r25, 0x1A	; 26
    1076:	c9 2e       	mov	r12, r25
    1078:	81 e0       	ldi	r24, 0x01	; 1
    107a:	e8 2e       	mov	r14, r24
    107c:	f1 2c       	mov	r15, r1
    107e:	8c 2d       	mov	r24, r12
    1080:	8a 95       	dec	r24
    1082:	f1 f7       	brne	.-4      	; 0x1080 <_ZN8Tds18b209WriteByteEh+0x24>
    1084:	c7 01       	movw	r24, r14
    1086:	0c 2e       	mov	r0, r28
    1088:	02 c0       	rjmp	.+4      	; 0x108e <_ZN8Tds18b209WriteByteEh+0x32>
    108a:	88 0f       	add	r24, r24
    108c:	99 1f       	adc	r25, r25
    108e:	0a 94       	dec	r0
    1090:	e2 f7       	brpl	.-8      	; 0x108a <_ZN8Tds18b209WriteByteEh+0x2e>
    1092:	6d 2d       	mov	r22, r13
    1094:	68 23       	and	r22, r24
    1096:	c8 01       	movw	r24, r16
    1098:	0e 94 01 08 	call	0x1002	; 0x1002 <_ZN8Tds18b208WriteBitEh>
    109c:	21 96       	adiw	r28, 0x01	; 1
    109e:	c8 30       	cpi	r28, 0x08	; 8
    10a0:	d1 05       	cpc	r29, r1
    10a2:	69 f7       	brne	.-38     	; 0x107e <_ZN8Tds18b209WriteByteEh+0x22>
    10a4:	80 e1       	ldi	r24, 0x10	; 16
    10a6:	8a 95       	dec	r24
    10a8:	f1 f7       	brne	.-4      	; 0x10a6 <_ZN8Tds18b209WriteByteEh+0x4a>
    10aa:	df 91       	pop	r29
    10ac:	cf 91       	pop	r28
    10ae:	1f 91       	pop	r17
    10b0:	0f 91       	pop	r16
    10b2:	ff 90       	pop	r15
    10b4:	ef 90       	pop	r14
    10b6:	df 90       	pop	r13
    10b8:	cf 90       	pop	r12
    10ba:	08 95       	ret

000010bc <_ZN8Tds18b207ReadBitEv>:
    10bc:	9f 92       	push	r9
    10be:	af 92       	push	r10
    10c0:	bf 92       	push	r11
    10c2:	cf 92       	push	r12
    10c4:	df 92       	push	r13
    10c6:	ef 92       	push	r14
    10c8:	ff 92       	push	r15
    10ca:	0f 93       	push	r16
    10cc:	1f 93       	push	r17
    10ce:	27 b1       	in	r18, 0x07	; 7
    10d0:	40 91 48 01 	lds	r20, 0x0148
    10d4:	81 e0       	ldi	r24, 0x01	; 1
    10d6:	90 e0       	ldi	r25, 0x00	; 0
    10d8:	04 2e       	mov	r0, r20
    10da:	02 c0       	rjmp	.+4      	; 0x10e0 <_ZN8Tds18b207ReadBitEv+0x24>
    10dc:	88 0f       	add	r24, r24
    10de:	99 1f       	adc	r25, r25
    10e0:	0a 94       	dec	r0
    10e2:	e2 f7       	brpl	.-8      	; 0x10dc <_ZN8Tds18b207ReadBitEv+0x20>
    10e4:	28 2b       	or	r18, r24
    10e6:	27 b9       	out	0x07, r18	; 7
    10e8:	28 b1       	in	r18, 0x08	; 8
    10ea:	38 2f       	mov	r19, r24
    10ec:	30 95       	com	r19
    10ee:	23 23       	and	r18, r19
    10f0:	28 b9       	out	0x08, r18	; 8
    10f2:	9a e1       	ldi	r25, 0x1A	; 26
    10f4:	9a 95       	dec	r25
    10f6:	f1 f7       	brne	.-4      	; 0x10f4 <_ZN8Tds18b207ReadBitEv+0x38>
    10f8:	28 b1       	in	r18, 0x08	; 8
    10fa:	82 2b       	or	r24, r18
    10fc:	88 b9       	out	0x08, r24	; 8
    10fe:	87 b1       	in	r24, 0x07	; 7
    1100:	38 23       	and	r19, r24
    1102:	37 b9       	out	0x07, r19	; 7
    1104:	66 e4       	ldi	r22, 0x46	; 70
    1106:	25 e0       	ldi	r18, 0x05	; 5
    1108:	86 b1       	in	r24, 0x06	; 6
    110a:	90 e0       	ldi	r25, 0x00	; 0
    110c:	04 2e       	mov	r0, r20
    110e:	02 c0       	rjmp	.+4      	; 0x1114 <_ZN8Tds18b207ReadBitEv+0x58>
    1110:	95 95       	asr	r25
    1112:	87 95       	ror	r24
    1114:	0a 94       	dec	r0
    1116:	e2 f7       	brpl	.-8      	; 0x1110 <_ZN8Tds18b207ReadBitEv+0x54>
    1118:	80 fd       	sbrc	r24, 0
    111a:	0b c0       	rjmp	.+22     	; 0x1132 <_ZN8Tds18b207ReadBitEv+0x76>
    111c:	86 b1       	in	r24, 0x06	; 6
    111e:	90 e0       	ldi	r25, 0x00	; 0
    1120:	04 2e       	mov	r0, r20
    1122:	02 c0       	rjmp	.+4      	; 0x1128 <_ZN8Tds18b207ReadBitEv+0x6c>
    1124:	95 95       	asr	r25
    1126:	87 95       	ror	r24
    1128:	0a 94       	dec	r0
    112a:	e2 f7       	brpl	.-8      	; 0x1124 <_ZN8Tds18b207ReadBitEv+0x68>
    112c:	80 ff       	sbrs	r24, 0
    112e:	f6 cf       	rjmp	.-20     	; 0x111c <_ZN8Tds18b207ReadBitEv+0x60>
    1130:	07 c0       	rjmp	.+14     	; 0x1140 <_ZN8Tds18b207ReadBitEv+0x84>
    1132:	61 50       	subi	r22, 0x01	; 1
    1134:	82 2f       	mov	r24, r18
    1136:	8a 95       	dec	r24
    1138:	f1 f7       	brne	.-4      	; 0x1136 <_ZN8Tds18b207ReadBitEv+0x7a>
    113a:	66 23       	and	r22, r22
    113c:	29 f7       	brne	.-54     	; 0x1108 <_ZN8Tds18b207ReadBitEv+0x4c>
    113e:	04 c0       	rjmp	.+8      	; 0x1148 <_ZN8Tds18b207ReadBitEv+0x8c>
    1140:	66 23       	and	r22, r22
    1142:	11 f0       	breq	.+4      	; 0x1148 <_ZN8Tds18b207ReadBitEv+0x8c>
    1144:	99 24       	eor	r9, r9
    1146:	02 c0       	rjmp	.+4      	; 0x114c <_ZN8Tds18b207ReadBitEv+0x90>
    1148:	99 24       	eor	r9, r9
    114a:	93 94       	inc	r9
    114c:	70 e0       	ldi	r23, 0x00	; 0
    114e:	80 e0       	ldi	r24, 0x00	; 0
    1150:	90 e0       	ldi	r25, 0x00	; 0
    1152:	0e 94 84 0f 	call	0x1f08	; 0x1f08 <__floatunsisf>
    1156:	5b 01       	movw	r10, r22
    1158:	6c 01       	movw	r12, r24
    115a:	2b ea       	ldi	r18, 0xAB	; 171
    115c:	3a ea       	ldi	r19, 0xAA	; 170
    115e:	4a ea       	ldi	r20, 0xAA	; 170
    1160:	50 e4       	ldi	r21, 0x40	; 64
    1162:	0e 94 9c 0c 	call	0x1938	; 0x1938 <__mulsf3>
    1166:	7b 01       	movw	r14, r22
    1168:	8c 01       	movw	r16, r24
    116a:	20 e0       	ldi	r18, 0x00	; 0
    116c:	30 e0       	ldi	r19, 0x00	; 0
    116e:	40 e8       	ldi	r20, 0x80	; 128
    1170:	5f e3       	ldi	r21, 0x3F	; 63
    1172:	0e 94 a2 0e 	call	0x1d44	; 0x1d44 <__ltsf2>
    1176:	88 23       	and	r24, r24
    1178:	14 f4       	brge	.+4      	; 0x117e <_ZN8Tds18b207ReadBitEv+0xc2>
    117a:	61 e0       	ldi	r22, 0x01	; 1
    117c:	54 c0       	rjmp	.+168    	; 0x1226 <_ZN8Tds18b207ReadBitEv+0x16a>
    117e:	c8 01       	movw	r24, r16
    1180:	b7 01       	movw	r22, r14
    1182:	20 e0       	ldi	r18, 0x00	; 0
    1184:	30 e0       	ldi	r19, 0x00	; 0
    1186:	4f e7       	ldi	r20, 0x7F	; 127
    1188:	53 e4       	ldi	r21, 0x43	; 67
    118a:	0e 94 42 0e 	call	0x1c84	; 0x1c84 <__gtsf2>
    118e:	18 16       	cp	r1, r24
    1190:	0c f0       	brlt	.+2      	; 0x1194 <_ZN8Tds18b207ReadBitEv+0xd8>
    1192:	45 c0       	rjmp	.+138    	; 0x121e <_ZN8Tds18b207ReadBitEv+0x162>
    1194:	c6 01       	movw	r24, r12
    1196:	b5 01       	movw	r22, r10
    1198:	20 e0       	ldi	r18, 0x00	; 0
    119a:	30 e0       	ldi	r19, 0x00	; 0
    119c:	4a e7       	ldi	r20, 0x7A	; 122
    119e:	54 e4       	ldi	r21, 0x44	; 68
    11a0:	0e 94 96 0d 	call	0x1b2c	; 0x1b2c <__divsf3>
    11a4:	5b 01       	movw	r10, r22
    11a6:	6c 01       	movw	r12, r24
    11a8:	20 e0       	ldi	r18, 0x00	; 0
    11aa:	30 e0       	ldi	r19, 0x00	; 0
    11ac:	4a e7       	ldi	r20, 0x7A	; 122
    11ae:	55 e4       	ldi	r21, 0x45	; 69
    11b0:	0e 94 9c 0c 	call	0x1938	; 0x1938 <__mulsf3>
    11b4:	7b 01       	movw	r14, r22
    11b6:	8c 01       	movw	r16, r24
    11b8:	20 e0       	ldi	r18, 0x00	; 0
    11ba:	30 e0       	ldi	r19, 0x00	; 0
    11bc:	40 e8       	ldi	r20, 0x80	; 128
    11be:	5f e3       	ldi	r21, 0x3F	; 63
    11c0:	0e 94 a2 0e 	call	0x1d44	; 0x1d44 <__ltsf2>
    11c4:	88 23       	and	r24, r24
    11c6:	1c f4       	brge	.+6      	; 0x11ce <_ZN8Tds18b207ReadBitEv+0x112>
    11c8:	61 e0       	ldi	r22, 0x01	; 1
    11ca:	70 e0       	ldi	r23, 0x00	; 0
    11cc:	24 c0       	rjmp	.+72     	; 0x1216 <_ZN8Tds18b207ReadBitEv+0x15a>
    11ce:	c8 01       	movw	r24, r16
    11d0:	b7 01       	movw	r22, r14
    11d2:	20 e0       	ldi	r18, 0x00	; 0
    11d4:	3f ef       	ldi	r19, 0xFF	; 255
    11d6:	4f e7       	ldi	r20, 0x7F	; 127
    11d8:	57 e4       	ldi	r21, 0x47	; 71
    11da:	0e 94 42 0e 	call	0x1c84	; 0x1c84 <__gtsf2>
    11de:	18 16       	cp	r1, r24
    11e0:	b4 f4       	brge	.+44     	; 0x120e <_ZN8Tds18b207ReadBitEv+0x152>
    11e2:	c6 01       	movw	r24, r12
    11e4:	b5 01       	movw	r22, r10
    11e6:	20 e0       	ldi	r18, 0x00	; 0
    11e8:	30 e0       	ldi	r19, 0x00	; 0
    11ea:	40 e2       	ldi	r20, 0x20	; 32
    11ec:	51 e4       	ldi	r21, 0x41	; 65
    11ee:	0e 94 9c 0c 	call	0x1938	; 0x1938 <__mulsf3>
    11f2:	0e 94 c6 0a 	call	0x158c	; 0x158c <__fixunssfsi>
    11f6:	80 e9       	ldi	r24, 0x90	; 144
    11f8:	91 e0       	ldi	r25, 0x01	; 1
    11fa:	05 c0       	rjmp	.+10     	; 0x1206 <_ZN8Tds18b207ReadBitEv+0x14a>
    11fc:	fc 01       	movw	r30, r24
    11fe:	31 97       	sbiw	r30, 0x01	; 1
    1200:	f1 f7       	brne	.-4      	; 0x11fe <_ZN8Tds18b207ReadBitEv+0x142>
    1202:	61 50       	subi	r22, 0x01	; 1
    1204:	70 40       	sbci	r23, 0x00	; 0
    1206:	61 15       	cp	r22, r1
    1208:	71 05       	cpc	r23, r1
    120a:	c1 f7       	brne	.-16     	; 0x11fc <_ZN8Tds18b207ReadBitEv+0x140>
    120c:	0e c0       	rjmp	.+28     	; 0x122a <_ZN8Tds18b207ReadBitEv+0x16e>
    120e:	c8 01       	movw	r24, r16
    1210:	b7 01       	movw	r22, r14
    1212:	0e 94 c6 0a 	call	0x158c	; 0x158c <__fixunssfsi>
    1216:	cb 01       	movw	r24, r22
    1218:	01 97       	sbiw	r24, 0x01	; 1
    121a:	f1 f7       	brne	.-4      	; 0x1218 <_ZN8Tds18b207ReadBitEv+0x15c>
    121c:	06 c0       	rjmp	.+12     	; 0x122a <_ZN8Tds18b207ReadBitEv+0x16e>
    121e:	c8 01       	movw	r24, r16
    1220:	b7 01       	movw	r22, r14
    1222:	0e 94 c6 0a 	call	0x158c	; 0x158c <__fixunssfsi>
    1226:	6a 95       	dec	r22
    1228:	f1 f7       	brne	.-4      	; 0x1226 <_ZN8Tds18b207ReadBitEv+0x16a>
    122a:	89 2d       	mov	r24, r9
    122c:	1f 91       	pop	r17
    122e:	0f 91       	pop	r16
    1230:	ff 90       	pop	r15
    1232:	ef 90       	pop	r14
    1234:	df 90       	pop	r13
    1236:	cf 90       	pop	r12
    1238:	bf 90       	pop	r11
    123a:	af 90       	pop	r10
    123c:	9f 90       	pop	r9
    123e:	08 95       	ret

00001240 <_ZN8Tds18b208ReadByteEv>:
    1240:	ef 92       	push	r14
    1242:	ff 92       	push	r15
    1244:	0f 93       	push	r16
    1246:	1f 93       	push	r17
    1248:	cf 93       	push	r28
    124a:	df 93       	push	r29
    124c:	7c 01       	movw	r14, r24
    124e:	10 e0       	ldi	r17, 0x00	; 0
    1250:	c0 e0       	ldi	r28, 0x00	; 0
    1252:	d0 e0       	ldi	r29, 0x00	; 0
    1254:	0a e1       	ldi	r16, 0x1A	; 26
    1256:	80 2f       	mov	r24, r16
    1258:	8a 95       	dec	r24
    125a:	f1 f7       	brne	.-4      	; 0x1258 <_ZN8Tds18b208ReadByteEv+0x18>
    125c:	c7 01       	movw	r24, r14
    125e:	0e 94 5e 08 	call	0x10bc	; 0x10bc <_ZN8Tds18b207ReadBitEv>
    1262:	90 e0       	ldi	r25, 0x00	; 0
    1264:	0c 2e       	mov	r0, r28
    1266:	02 c0       	rjmp	.+4      	; 0x126c <_ZN8Tds18b208ReadByteEv+0x2c>
    1268:	88 0f       	add	r24, r24
    126a:	99 1f       	adc	r25, r25
    126c:	0a 94       	dec	r0
    126e:	e2 f7       	brpl	.-8      	; 0x1268 <_ZN8Tds18b208ReadByteEv+0x28>
    1270:	18 2b       	or	r17, r24
    1272:	21 96       	adiw	r28, 0x01	; 1
    1274:	c8 30       	cpi	r28, 0x08	; 8
    1276:	d1 05       	cpc	r29, r1
    1278:	71 f7       	brne	.-36     	; 0x1256 <_ZN8Tds18b208ReadByteEv+0x16>
    127a:	80 e1       	ldi	r24, 0x10	; 16
    127c:	8a 95       	dec	r24
    127e:	f1 f7       	brne	.-4      	; 0x127c <_ZN8Tds18b208ReadByteEv+0x3c>
    1280:	81 2f       	mov	r24, r17
    1282:	df 91       	pop	r29
    1284:	cf 91       	pop	r28
    1286:	1f 91       	pop	r17
    1288:	0f 91       	pop	r16
    128a:	ff 90       	pop	r15
    128c:	ef 90       	pop	r14
    128e:	08 95       	ret

00001290 <_ZN8Tds18b2013SetResolutionEh>:
    1290:	1f 93       	push	r17
    1292:	cf 93       	push	r28
    1294:	df 93       	push	r29
    1296:	ec 01       	movw	r28, r24
    1298:	16 2f       	mov	r17, r22
    129a:	88 b1       	in	r24, 0x08	; 8
    129c:	21 e0       	ldi	r18, 0x01	; 1
    129e:	30 e0       	ldi	r19, 0x00	; 0
    12a0:	00 90 48 01 	lds	r0, 0x0148
    12a4:	02 c0       	rjmp	.+4      	; 0x12aa <_ZN8Tds18b2013SetResolutionEh+0x1a>
    12a6:	22 0f       	add	r18, r18
    12a8:	33 1f       	adc	r19, r19
    12aa:	0a 94       	dec	r0
    12ac:	e2 f7       	brpl	.-8      	; 0x12a6 <_ZN8Tds18b2013SetResolutionEh+0x16>
    12ae:	82 2b       	or	r24, r18
    12b0:	88 b9       	out	0x08, r24	; 8
    12b2:	87 b1       	in	r24, 0x07	; 7
    12b4:	20 95       	com	r18
    12b6:	28 23       	and	r18, r24
    12b8:	27 b9       	out	0x07, r18	; 7
    12ba:	80 e0       	ldi	r24, 0x00	; 0
    12bc:	90 e0       	ldi	r25, 0x00	; 0
    12be:	35 e0       	ldi	r19, 0x05	; 5
    12c0:	23 2f       	mov	r18, r19
    12c2:	2a 95       	dec	r18
    12c4:	f1 f7       	brne	.-4      	; 0x12c2 <_ZN8Tds18b2013SetResolutionEh+0x32>
    12c6:	01 96       	adiw	r24, 0x01	; 1
    12c8:	8a 3f       	cpi	r24, 0xFA	; 250
    12ca:	91 05       	cpc	r25, r1
    12cc:	c9 f7       	brne	.-14     	; 0x12c0 <_ZN8Tds18b2013SetResolutionEh+0x30>
    12ce:	ce 01       	movw	r24, r28
    12d0:	0e 94 93 07 	call	0xf26	; 0xf26 <_ZN8Tds18b2014Reset_PresenceEv>
    12d4:	ce 01       	movw	r24, r28
    12d6:	6c ec       	ldi	r22, 0xCC	; 204
    12d8:	0e 94 2e 08 	call	0x105c	; 0x105c <_ZN8Tds18b209WriteByteEh>
    12dc:	ce 01       	movw	r24, r28
    12de:	6e e4       	ldi	r22, 0x4E	; 78
    12e0:	0e 94 2e 08 	call	0x105c	; 0x105c <_ZN8Tds18b209WriteByteEh>
    12e4:	ce 01       	movw	r24, r28
    12e6:	62 e1       	ldi	r22, 0x12	; 18
    12e8:	0e 94 2e 08 	call	0x105c	; 0x105c <_ZN8Tds18b209WriteByteEh>
    12ec:	ce 01       	movw	r24, r28
    12ee:	64 e3       	ldi	r22, 0x34	; 52
    12f0:	0e 94 2e 08 	call	0x105c	; 0x105c <_ZN8Tds18b209WriteByteEh>
    12f4:	61 2f       	mov	r22, r17
    12f6:	70 e0       	ldi	r23, 0x00	; 0
    12f8:	63 70       	andi	r22, 0x03	; 3
    12fa:	70 70       	andi	r23, 0x00	; 0
    12fc:	25 e0       	ldi	r18, 0x05	; 5
    12fe:	66 0f       	add	r22, r22
    1300:	77 1f       	adc	r23, r23
    1302:	2a 95       	dec	r18
    1304:	e1 f7       	brne	.-8      	; 0x12fe <_ZN8Tds18b2013SetResolutionEh+0x6e>
    1306:	6f 61       	ori	r22, 0x1F	; 31
    1308:	ce 01       	movw	r24, r28
    130a:	0e 94 2e 08 	call	0x105c	; 0x105c <_ZN8Tds18b209WriteByteEh>
    130e:	ce 01       	movw	r24, r28
    1310:	0e 94 93 07 	call	0xf26	; 0xf26 <_ZN8Tds18b2014Reset_PresenceEv>
    1314:	ce 01       	movw	r24, r28
    1316:	6c ec       	ldi	r22, 0xCC	; 204
    1318:	0e 94 2e 08 	call	0x105c	; 0x105c <_ZN8Tds18b209WriteByteEh>
    131c:	ce 01       	movw	r24, r28
    131e:	68 e4       	ldi	r22, 0x48	; 72
    1320:	0e 94 2e 08 	call	0x105c	; 0x105c <_ZN8Tds18b209WriteByteEh>
    1324:	80 e4       	ldi	r24, 0x40	; 64
    1326:	9c e9       	ldi	r25, 0x9C	; 156
    1328:	01 97       	sbiw	r24, 0x01	; 1
    132a:	f1 f7       	brne	.-4      	; 0x1328 <_ZN8Tds18b2013SetResolutionEh+0x98>
    132c:	ce 01       	movw	r24, r28
    132e:	0e 94 5e 08 	call	0x10bc	; 0x10bc <_ZN8Tds18b207ReadBitEv>
    1332:	88 23       	and	r24, r24
    1334:	d9 f3       	breq	.-10     	; 0x132c <_ZN8Tds18b2013SetResolutionEh+0x9c>
    1336:	ce 01       	movw	r24, r28
    1338:	0e 94 93 07 	call	0xf26	; 0xf26 <_ZN8Tds18b2014Reset_PresenceEv>
    133c:	df 91       	pop	r29
    133e:	cf 91       	pop	r28
    1340:	1f 91       	pop	r17
    1342:	08 95       	ret

00001344 <_ZN8Tds18b2017CzytajTemperatureEv>:
    1344:	cf 92       	push	r12
    1346:	df 92       	push	r13
    1348:	ef 92       	push	r14
    134a:	ff 92       	push	r15
    134c:	0f 93       	push	r16
    134e:	1f 93       	push	r17
    1350:	df 93       	push	r29
    1352:	cf 93       	push	r28
    1354:	cd b7       	in	r28, 0x3d	; 61
    1356:	de b7       	in	r29, 0x3e	; 62
    1358:	2b 97       	sbiw	r28, 0x0b	; 11
    135a:	0f b6       	in	r0, 0x3f	; 63
    135c:	f8 94       	cli
    135e:	de bf       	out	0x3e, r29	; 62
    1360:	0f be       	out	0x3f, r0	; 63
    1362:	cd bf       	out	0x3d, r28	; 61
    1364:	7c 01       	movw	r14, r24
    1366:	0e 94 93 07 	call	0xf26	; 0xf26 <_ZN8Tds18b2014Reset_PresenceEv>
    136a:	8f 3f       	cpi	r24, 0xFF	; 255
    136c:	09 f4       	brne	.+2      	; 0x1370 <_ZN8Tds18b2017CzytajTemperatureEv+0x2c>
    136e:	4b c0       	rjmp	.+150    	; 0x1406 <_ZN8Tds18b2017CzytajTemperatureEv+0xc2>
    1370:	c7 01       	movw	r24, r14
    1372:	6c ec       	ldi	r22, 0xCC	; 204
    1374:	0e 94 2e 08 	call	0x105c	; 0x105c <_ZN8Tds18b209WriteByteEh>
    1378:	c7 01       	movw	r24, r14
    137a:	64 e4       	ldi	r22, 0x44	; 68
    137c:	0e 94 2e 08 	call	0x105c	; 0x105c <_ZN8Tds18b209WriteByteEh>
    1380:	c7 01       	movw	r24, r14
    1382:	0e 94 5e 08 	call	0x10bc	; 0x10bc <_ZN8Tds18b207ReadBitEv>
    1386:	88 23       	and	r24, r24
    1388:	d9 f3       	breq	.-10     	; 0x1380 <_ZN8Tds18b2017CzytajTemperatureEv+0x3c>
    138a:	c7 01       	movw	r24, r14
    138c:	0e 94 93 07 	call	0xf26	; 0xf26 <_ZN8Tds18b2014Reset_PresenceEv>
    1390:	c7 01       	movw	r24, r14
    1392:	6c ec       	ldi	r22, 0xCC	; 204
    1394:	0e 94 2e 08 	call	0x105c	; 0x105c <_ZN8Tds18b209WriteByteEh>
    1398:	c7 01       	movw	r24, r14
    139a:	6e eb       	ldi	r22, 0xBE	; 190
    139c:	0e 94 2e 08 	call	0x105c	; 0x105c <_ZN8Tds18b209WriteByteEh>
    13a0:	8e 01       	movw	r16, r28
    13a2:	0d 5f       	subi	r16, 0xFD	; 253
    13a4:	1f 4f       	sbci	r17, 0xFF	; 255
    13a6:	3c e0       	ldi	r19, 0x0C	; 12
    13a8:	c3 2e       	mov	r12, r19
    13aa:	d1 2c       	mov	r13, r1
    13ac:	cc 0e       	add	r12, r28
    13ae:	dd 1e       	adc	r13, r29
    13b0:	c7 01       	movw	r24, r14
    13b2:	0e 94 20 09 	call	0x1240	; 0x1240 <_ZN8Tds18b208ReadByteEv>
    13b6:	f8 01       	movw	r30, r16
    13b8:	81 93       	st	Z+, r24
    13ba:	8f 01       	movw	r16, r30
    13bc:	ec 15       	cp	r30, r12
    13be:	fd 05       	cpc	r31, r13
    13c0:	b9 f7       	brne	.-18     	; 0x13b0 <_ZN8Tds18b2017CzytajTemperatureEv+0x6c>
    13c2:	c7 01       	movw	r24, r14
    13c4:	0e 94 93 07 	call	0xf26	; 0xf26 <_ZN8Tds18b2014Reset_PresenceEv>
    13c8:	90 e0       	ldi	r25, 0x00	; 0
    13ca:	20 e0       	ldi	r18, 0x00	; 0
    13cc:	ae 01       	movw	r20, r28
    13ce:	4d 5f       	subi	r20, 0xFD	; 253
    13d0:	5f 4f       	sbci	r21, 0xFF	; 255
    13d2:	0e c0       	rjmp	.+28     	; 0x13f0 <_ZN8Tds18b2017CzytajTemperatureEv+0xac>
    13d4:	fa 01       	movw	r30, r20
    13d6:	e9 0f       	add	r30, r25
    13d8:	f1 1d       	adc	r31, r1
    13da:	80 81       	ld	r24, Z
    13dc:	28 27       	eor	r18, r24
    13de:	38 e0       	ldi	r19, 0x08	; 8
    13e0:	8c e8       	ldi	r24, 0x8C	; 140
    13e2:	20 fb       	bst	r18, 0
    13e4:	26 95       	lsr	r18
    13e6:	0e f4       	brtc	.+2      	; 0x13ea <_ZN8Tds18b2017CzytajTemperatureEv+0xa6>
    13e8:	28 27       	eor	r18, r24
    13ea:	3a 95       	dec	r19
    13ec:	d1 f7       	brne	.-12     	; 0x13e2 <_ZN8Tds18b2017CzytajTemperatureEv+0x9e>
    13ee:	9f 5f       	subi	r25, 0xFF	; 255
    13f0:	99 30       	cpi	r25, 0x09	; 9
    13f2:	81 f7       	brne	.-32     	; 0x13d4 <_ZN8Tds18b2017CzytajTemperatureEv+0x90>
    13f4:	22 23       	and	r18, r18
    13f6:	39 f4       	brne	.+14     	; 0x1406 <_ZN8Tds18b2017CzytajTemperatureEv+0xc2>
    13f8:	8b 81       	ldd	r24, Y+3	; 0x03
    13fa:	89 83       	std	Y+1, r24	; 0x01
    13fc:	8c 81       	ldd	r24, Y+4	; 0x04
    13fe:	8a 83       	std	Y+2, r24	; 0x02
    1400:	29 81       	ldd	r18, Y+1	; 0x01
    1402:	3a 81       	ldd	r19, Y+2	; 0x02
    1404:	02 c0       	rjmp	.+4      	; 0x140a <_ZN8Tds18b2017CzytajTemperatureEv+0xc6>
    1406:	2f ef       	ldi	r18, 0xFF	; 255
    1408:	3f ef       	ldi	r19, 0xFF	; 255
    140a:	c9 01       	movw	r24, r18
    140c:	2b 96       	adiw	r28, 0x0b	; 11
    140e:	0f b6       	in	r0, 0x3f	; 63
    1410:	f8 94       	cli
    1412:	de bf       	out	0x3e, r29	; 62
    1414:	0f be       	out	0x3f, r0	; 63
    1416:	cd bf       	out	0x3d, r28	; 61
    1418:	cf 91       	pop	r28
    141a:	df 91       	pop	r29
    141c:	1f 91       	pop	r17
    141e:	0f 91       	pop	r16
    1420:	ff 90       	pop	r15
    1422:	ef 90       	pop	r14
    1424:	df 90       	pop	r13
    1426:	cf 90       	pop	r12
    1428:	08 95       	ret

0000142a <_Z8CheckCRCPhi>:
    142a:	ac 01       	movw	r20, r24
    142c:	30 e0       	ldi	r19, 0x00	; 0
    142e:	20 e0       	ldi	r18, 0x00	; 0
    1430:	0d c0       	rjmp	.+26     	; 0x144c <_Z8CheckCRCPhi+0x22>
    1432:	e4 0f       	add	r30, r20
    1434:	f5 1f       	adc	r31, r21
    1436:	80 81       	ld	r24, Z
    1438:	38 27       	eor	r19, r24
    143a:	88 e0       	ldi	r24, 0x08	; 8
    143c:	9c e8       	ldi	r25, 0x8C	; 140
    143e:	30 fb       	bst	r19, 0
    1440:	36 95       	lsr	r19
    1442:	0e f4       	brtc	.+2      	; 0x1446 <_Z8CheckCRCPhi+0x1c>
    1444:	39 27       	eor	r19, r25
    1446:	8a 95       	dec	r24
    1448:	d1 f7       	brne	.-12     	; 0x143e <_Z8CheckCRCPhi+0x14>
    144a:	2f 5f       	subi	r18, 0xFF	; 255
    144c:	e2 2f       	mov	r30, r18
    144e:	f0 e0       	ldi	r31, 0x00	; 0
    1450:	e6 17       	cp	r30, r22
    1452:	f7 07       	cpc	r31, r23
    1454:	74 f3       	brlt	.-36     	; 0x1432 <_Z8CheckCRCPhi+0x8>
    1456:	83 2f       	mov	r24, r19
    1458:	08 95       	ret

0000145a <_ZN8Tds18b2011TempToAsciiEjPc>:
    145a:	8f 92       	push	r8
    145c:	9f 92       	push	r9
    145e:	af 92       	push	r10
    1460:	bf 92       	push	r11
    1462:	cf 92       	push	r12
    1464:	df 92       	push	r13
    1466:	ef 92       	push	r14
    1468:	ff 92       	push	r15
    146a:	0f 93       	push	r16
    146c:	1f 93       	push	r17
    146e:	df 93       	push	r29
    1470:	cf 93       	push	r28
    1472:	00 d0       	rcall	.+0      	; 0x1474 <_ZN8Tds18b2011TempToAsciiEjPc+0x1a>
    1474:	cd b7       	in	r28, 0x3d	; 61
    1476:	de b7       	in	r29, 0x3e	; 62
    1478:	96 2e       	mov	r9, r22
    147a:	87 2e       	mov	r8, r23
    147c:	2f ef       	ldi	r18, 0xFF	; 255
    147e:	8f 3f       	cpi	r24, 0xFF	; 255
    1480:	92 07       	cpc	r25, r18
    1482:	39 f4       	brne	.+14     	; 0x1492 <_ZN8Tds18b2011TempToAsciiEjPc+0x38>
    1484:	86 2f       	mov	r24, r22
    1486:	97 2f       	mov	r25, r23
    1488:	60 e4       	ldi	r22, 0x40	; 64
    148a:	71 e0       	ldi	r23, 0x01	; 1
    148c:	0e 94 3f 13 	call	0x267e	; 0x267e <strcpy>
    1490:	43 c0       	rjmp	.+134    	; 0x1518 <_ZN8Tds18b2011TempToAsciiEjPc+0xbe>
    1492:	bc 01       	movw	r22, r24
    1494:	80 e0       	ldi	r24, 0x00	; 0
    1496:	90 e0       	ldi	r25, 0x00	; 0
    1498:	0e 94 84 0f 	call	0x1f08	; 0x1f08 <__floatunsisf>
    149c:	20 e0       	ldi	r18, 0x00	; 0
    149e:	30 e0       	ldi	r19, 0x00	; 0
    14a0:	40 e0       	ldi	r20, 0x00	; 0
    14a2:	5f e3       	ldi	r21, 0x3F	; 63
    14a4:	0e 94 9c 0c 	call	0x1938	; 0x1938 <__mulsf3>
    14a8:	5b 01       	movw	r10, r22
    14aa:	6c 01       	movw	r12, r24
    14ac:	0e 94 30 0f 	call	0x1e60	; 0x1e60 <__fixsfsi>
    14b0:	dc 01       	movw	r26, r24
    14b2:	cb 01       	movw	r24, r22
    14b4:	7c 01       	movw	r14, r24
    14b6:	69 2d       	mov	r22, r9
    14b8:	78 2d       	mov	r23, r8
    14ba:	4a e0       	ldi	r20, 0x0A	; 10
    14bc:	50 e0       	ldi	r21, 0x00	; 0
    14be:	0e 94 46 13 	call	0x268c	; 0x268c <itoa>
    14c2:	89 2d       	mov	r24, r9
    14c4:	98 2d       	mov	r25, r8
    14c6:	66 e4       	ldi	r22, 0x46	; 70
    14c8:	71 e0       	ldi	r23, 0x01	; 1
    14ca:	0e 94 34 13 	call	0x2668	; 0x2668 <strcat>
    14ce:	00 27       	eor	r16, r16
    14d0:	f7 fc       	sbrc	r15, 7
    14d2:	00 95       	com	r16
    14d4:	10 2f       	mov	r17, r16
    14d6:	c8 01       	movw	r24, r16
    14d8:	b7 01       	movw	r22, r14
    14da:	0e 94 d2 0e 	call	0x1da4	; 0x1da4 <__floatsisf>
    14de:	9b 01       	movw	r18, r22
    14e0:	ac 01       	movw	r20, r24
    14e2:	c6 01       	movw	r24, r12
    14e4:	b5 01       	movw	r22, r10
    14e6:	0e 94 3e 0c 	call	0x187c	; 0x187c <__subsf3>
    14ea:	20 e0       	ldi	r18, 0x00	; 0
    14ec:	30 e0       	ldi	r19, 0x00	; 0
    14ee:	40 e2       	ldi	r20, 0x20	; 32
    14f0:	51 e4       	ldi	r21, 0x41	; 65
    14f2:	0e 94 9c 0c 	call	0x1938	; 0x1938 <__mulsf3>
    14f6:	0e 94 30 0f 	call	0x1e60	; 0x1e60 <__fixsfsi>
    14fa:	dc 01       	movw	r26, r24
    14fc:	cb 01       	movw	r24, r22
    14fe:	8e 01       	movw	r16, r28
    1500:	0f 5f       	subi	r16, 0xFF	; 255
    1502:	1f 4f       	sbci	r17, 0xFF	; 255
    1504:	b8 01       	movw	r22, r16
    1506:	4a e0       	ldi	r20, 0x0A	; 10
    1508:	50 e0       	ldi	r21, 0x00	; 0
    150a:	0e 94 46 13 	call	0x268c	; 0x268c <itoa>
    150e:	89 2d       	mov	r24, r9
    1510:	98 2d       	mov	r25, r8
    1512:	b8 01       	movw	r22, r16
    1514:	0e 94 34 13 	call	0x2668	; 0x2668 <strcat>
    1518:	89 2d       	mov	r24, r9
    151a:	98 2d       	mov	r25, r8
    151c:	0f 90       	pop	r0
    151e:	0f 90       	pop	r0
    1520:	cf 91       	pop	r28
    1522:	df 91       	pop	r29
    1524:	1f 91       	pop	r17
    1526:	0f 91       	pop	r16
    1528:	ff 90       	pop	r15
    152a:	ef 90       	pop	r14
    152c:	df 90       	pop	r13
    152e:	cf 90       	pop	r12
    1530:	bf 90       	pop	r11
    1532:	af 90       	pop	r10
    1534:	9f 90       	pop	r9
    1536:	8f 90       	pop	r8
    1538:	08 95       	ret

0000153a <_ZN13MemoryCommand13getTargetNameEv>:
    153a:	8d e4       	ldi	r24, 0x4D	; 77
    153c:	08 95       	ret

0000153e <_ZN13MemoryCommand5applyEPcS0_>:
    153e:	08 95       	ret

00001540 <_ZN11TestCommand13getTargetNameEv>:
    1540:	88 e5       	ldi	r24, 0x58	; 88
    1542:	08 95       	ret

00001544 <_ZN11TestCommand5applyEPcS0_>:
    1544:	cf 92       	push	r12
    1546:	df 92       	push	r13
    1548:	ff 92       	push	r15
    154a:	0f 93       	push	r16
    154c:	1f 93       	push	r17
    154e:	6a 01       	movw	r12, r20
    1550:	8c 01       	movw	r16, r24
    1552:	0e 5f       	subi	r16, 0xFE	; 254
    1554:	1f 4f       	sbci	r17, 0xFF	; 255
    1556:	c8 01       	movw	r24, r16
    1558:	0e 94 9f 06 	call	0xd3e	; 0xd3e <_ZN9ByteModel10fromStringEPc>
    155c:	c8 01       	movw	r24, r16
    155e:	60 e0       	ldi	r22, 0x00	; 0
    1560:	0e 94 95 06 	call	0xd2a	; 0xd2a <_ZN9ByteModel3getEh>
    1564:	f8 2e       	mov	r15, r24
    1566:	c8 01       	movw	r24, r16
    1568:	61 e0       	ldi	r22, 0x01	; 1
    156a:	0e 94 95 06 	call	0xd2a	; 0xd2a <_ZN9ByteModel3getEh>
    156e:	f8 0e       	add	r15, r24
    1570:	c8 01       	movw	r24, r16
    1572:	6f 2d       	mov	r22, r15
    1574:	0e 94 87 06 	call	0xd0e	; 0xd0e <_ZN9ByteModel3addEh>
    1578:	c8 01       	movw	r24, r16
    157a:	b6 01       	movw	r22, r12
    157c:	0e 94 fb 06 	call	0xdf6	; 0xdf6 <_ZN9ByteModel8toStringEPc>
    1580:	1f 91       	pop	r17
    1582:	0f 91       	pop	r16
    1584:	ff 90       	pop	r15
    1586:	df 90       	pop	r13
    1588:	cf 90       	pop	r12
    158a:	08 95       	ret

0000158c <__fixunssfsi>:
    158c:	ef 92       	push	r14
    158e:	ff 92       	push	r15
    1590:	0f 93       	push	r16
    1592:	1f 93       	push	r17
    1594:	7b 01       	movw	r14, r22
    1596:	8c 01       	movw	r16, r24
    1598:	20 e0       	ldi	r18, 0x00	; 0
    159a:	30 e0       	ldi	r19, 0x00	; 0
    159c:	40 e0       	ldi	r20, 0x00	; 0
    159e:	5f e4       	ldi	r21, 0x4F	; 79
    15a0:	0e 94 72 0e 	call	0x1ce4	; 0x1ce4 <__gesf2>
    15a4:	88 23       	and	r24, r24
    15a6:	8c f0       	brlt	.+34     	; 0x15ca <__fixunssfsi+0x3e>
    15a8:	c8 01       	movw	r24, r16
    15aa:	b7 01       	movw	r22, r14
    15ac:	20 e0       	ldi	r18, 0x00	; 0
    15ae:	30 e0       	ldi	r19, 0x00	; 0
    15b0:	40 e0       	ldi	r20, 0x00	; 0
    15b2:	5f e4       	ldi	r21, 0x4F	; 79
    15b4:	0e 94 3e 0c 	call	0x187c	; 0x187c <__subsf3>
    15b8:	0e 94 30 0f 	call	0x1e60	; 0x1e60 <__fixsfsi>
    15bc:	9b 01       	movw	r18, r22
    15be:	ac 01       	movw	r20, r24
    15c0:	20 50       	subi	r18, 0x00	; 0
    15c2:	30 40       	sbci	r19, 0x00	; 0
    15c4:	40 40       	sbci	r20, 0x00	; 0
    15c6:	50 48       	sbci	r21, 0x80	; 128
    15c8:	06 c0       	rjmp	.+12     	; 0x15d6 <__fixunssfsi+0x4a>
    15ca:	c8 01       	movw	r24, r16
    15cc:	b7 01       	movw	r22, r14
    15ce:	0e 94 30 0f 	call	0x1e60	; 0x1e60 <__fixsfsi>
    15d2:	9b 01       	movw	r18, r22
    15d4:	ac 01       	movw	r20, r24
    15d6:	b9 01       	movw	r22, r18
    15d8:	ca 01       	movw	r24, r20
    15da:	1f 91       	pop	r17
    15dc:	0f 91       	pop	r16
    15de:	ff 90       	pop	r15
    15e0:	ef 90       	pop	r14
    15e2:	08 95       	ret

000015e4 <_fpadd_parts>:
    15e4:	a0 e0       	ldi	r26, 0x00	; 0
    15e6:	b0 e0       	ldi	r27, 0x00	; 0
    15e8:	e8 ef       	ldi	r30, 0xF8	; 248
    15ea:	fa e0       	ldi	r31, 0x0A	; 10
    15ec:	0c 94 f2 11 	jmp	0x23e4	; 0x23e4 <__prologue_saves__>
    15f0:	dc 01       	movw	r26, r24
    15f2:	2b 01       	movw	r4, r22
    15f4:	fa 01       	movw	r30, r20
    15f6:	9c 91       	ld	r25, X
    15f8:	92 30       	cpi	r25, 0x02	; 2
    15fa:	08 f4       	brcc	.+2      	; 0x15fe <_fpadd_parts+0x1a>
    15fc:	39 c1       	rjmp	.+626    	; 0x1870 <_fpadd_parts+0x28c>
    15fe:	eb 01       	movw	r28, r22
    1600:	88 81       	ld	r24, Y
    1602:	82 30       	cpi	r24, 0x02	; 2
    1604:	08 f4       	brcc	.+2      	; 0x1608 <_fpadd_parts+0x24>
    1606:	33 c1       	rjmp	.+614    	; 0x186e <_fpadd_parts+0x28a>
    1608:	94 30       	cpi	r25, 0x04	; 4
    160a:	69 f4       	brne	.+26     	; 0x1626 <_fpadd_parts+0x42>
    160c:	84 30       	cpi	r24, 0x04	; 4
    160e:	09 f0       	breq	.+2      	; 0x1612 <_fpadd_parts+0x2e>
    1610:	2f c1       	rjmp	.+606    	; 0x1870 <_fpadd_parts+0x28c>
    1612:	11 96       	adiw	r26, 0x01	; 1
    1614:	9c 91       	ld	r25, X
    1616:	11 97       	sbiw	r26, 0x01	; 1
    1618:	89 81       	ldd	r24, Y+1	; 0x01
    161a:	98 17       	cp	r25, r24
    161c:	09 f4       	brne	.+2      	; 0x1620 <_fpadd_parts+0x3c>
    161e:	28 c1       	rjmp	.+592    	; 0x1870 <_fpadd_parts+0x28c>
    1620:	a9 e5       	ldi	r26, 0x59	; 89
    1622:	b1 e0       	ldi	r27, 0x01	; 1
    1624:	25 c1       	rjmp	.+586    	; 0x1870 <_fpadd_parts+0x28c>
    1626:	84 30       	cpi	r24, 0x04	; 4
    1628:	09 f4       	brne	.+2      	; 0x162c <_fpadd_parts+0x48>
    162a:	21 c1       	rjmp	.+578    	; 0x186e <_fpadd_parts+0x28a>
    162c:	82 30       	cpi	r24, 0x02	; 2
    162e:	a9 f4       	brne	.+42     	; 0x165a <_fpadd_parts+0x76>
    1630:	92 30       	cpi	r25, 0x02	; 2
    1632:	09 f0       	breq	.+2      	; 0x1636 <_fpadd_parts+0x52>
    1634:	1d c1       	rjmp	.+570    	; 0x1870 <_fpadd_parts+0x28c>
    1636:	9a 01       	movw	r18, r20
    1638:	ad 01       	movw	r20, r26
    163a:	88 e0       	ldi	r24, 0x08	; 8
    163c:	ea 01       	movw	r28, r20
    163e:	09 90       	ld	r0, Y+
    1640:	ae 01       	movw	r20, r28
    1642:	e9 01       	movw	r28, r18
    1644:	09 92       	st	Y+, r0
    1646:	9e 01       	movw	r18, r28
    1648:	81 50       	subi	r24, 0x01	; 1
    164a:	c1 f7       	brne	.-16     	; 0x163c <_fpadd_parts+0x58>
    164c:	e2 01       	movw	r28, r4
    164e:	89 81       	ldd	r24, Y+1	; 0x01
    1650:	11 96       	adiw	r26, 0x01	; 1
    1652:	9c 91       	ld	r25, X
    1654:	89 23       	and	r24, r25
    1656:	81 83       	std	Z+1, r24	; 0x01
    1658:	08 c1       	rjmp	.+528    	; 0x186a <_fpadd_parts+0x286>
    165a:	92 30       	cpi	r25, 0x02	; 2
    165c:	09 f4       	brne	.+2      	; 0x1660 <_fpadd_parts+0x7c>
    165e:	07 c1       	rjmp	.+526    	; 0x186e <_fpadd_parts+0x28a>
    1660:	12 96       	adiw	r26, 0x02	; 2
    1662:	2d 90       	ld	r2, X+
    1664:	3c 90       	ld	r3, X
    1666:	13 97       	sbiw	r26, 0x03	; 3
    1668:	eb 01       	movw	r28, r22
    166a:	8a 81       	ldd	r24, Y+2	; 0x02
    166c:	9b 81       	ldd	r25, Y+3	; 0x03
    166e:	14 96       	adiw	r26, 0x04	; 4
    1670:	ad 90       	ld	r10, X+
    1672:	bd 90       	ld	r11, X+
    1674:	cd 90       	ld	r12, X+
    1676:	dc 90       	ld	r13, X
    1678:	17 97       	sbiw	r26, 0x07	; 7
    167a:	ec 80       	ldd	r14, Y+4	; 0x04
    167c:	fd 80       	ldd	r15, Y+5	; 0x05
    167e:	0e 81       	ldd	r16, Y+6	; 0x06
    1680:	1f 81       	ldd	r17, Y+7	; 0x07
    1682:	91 01       	movw	r18, r2
    1684:	28 1b       	sub	r18, r24
    1686:	39 0b       	sbc	r19, r25
    1688:	b9 01       	movw	r22, r18
    168a:	37 ff       	sbrs	r19, 7
    168c:	04 c0       	rjmp	.+8      	; 0x1696 <_fpadd_parts+0xb2>
    168e:	66 27       	eor	r22, r22
    1690:	77 27       	eor	r23, r23
    1692:	62 1b       	sub	r22, r18
    1694:	73 0b       	sbc	r23, r19
    1696:	60 32       	cpi	r22, 0x20	; 32
    1698:	71 05       	cpc	r23, r1
    169a:	0c f0       	brlt	.+2      	; 0x169e <_fpadd_parts+0xba>
    169c:	61 c0       	rjmp	.+194    	; 0x1760 <_fpadd_parts+0x17c>
    169e:	12 16       	cp	r1, r18
    16a0:	13 06       	cpc	r1, r19
    16a2:	6c f5       	brge	.+90     	; 0x16fe <_fpadd_parts+0x11a>
    16a4:	37 01       	movw	r6, r14
    16a6:	48 01       	movw	r8, r16
    16a8:	06 2e       	mov	r0, r22
    16aa:	04 c0       	rjmp	.+8      	; 0x16b4 <_fpadd_parts+0xd0>
    16ac:	96 94       	lsr	r9
    16ae:	87 94       	ror	r8
    16b0:	77 94       	ror	r7
    16b2:	67 94       	ror	r6
    16b4:	0a 94       	dec	r0
    16b6:	d2 f7       	brpl	.-12     	; 0x16ac <_fpadd_parts+0xc8>
    16b8:	21 e0       	ldi	r18, 0x01	; 1
    16ba:	30 e0       	ldi	r19, 0x00	; 0
    16bc:	40 e0       	ldi	r20, 0x00	; 0
    16be:	50 e0       	ldi	r21, 0x00	; 0
    16c0:	04 c0       	rjmp	.+8      	; 0x16ca <_fpadd_parts+0xe6>
    16c2:	22 0f       	add	r18, r18
    16c4:	33 1f       	adc	r19, r19
    16c6:	44 1f       	adc	r20, r20
    16c8:	55 1f       	adc	r21, r21
    16ca:	6a 95       	dec	r22
    16cc:	d2 f7       	brpl	.-12     	; 0x16c2 <_fpadd_parts+0xde>
    16ce:	21 50       	subi	r18, 0x01	; 1
    16d0:	30 40       	sbci	r19, 0x00	; 0
    16d2:	40 40       	sbci	r20, 0x00	; 0
    16d4:	50 40       	sbci	r21, 0x00	; 0
    16d6:	2e 21       	and	r18, r14
    16d8:	3f 21       	and	r19, r15
    16da:	40 23       	and	r20, r16
    16dc:	51 23       	and	r21, r17
    16de:	21 15       	cp	r18, r1
    16e0:	31 05       	cpc	r19, r1
    16e2:	41 05       	cpc	r20, r1
    16e4:	51 05       	cpc	r21, r1
    16e6:	21 f0       	breq	.+8      	; 0x16f0 <_fpadd_parts+0x10c>
    16e8:	21 e0       	ldi	r18, 0x01	; 1
    16ea:	30 e0       	ldi	r19, 0x00	; 0
    16ec:	40 e0       	ldi	r20, 0x00	; 0
    16ee:	50 e0       	ldi	r21, 0x00	; 0
    16f0:	79 01       	movw	r14, r18
    16f2:	8a 01       	movw	r16, r20
    16f4:	e6 28       	or	r14, r6
    16f6:	f7 28       	or	r15, r7
    16f8:	08 29       	or	r16, r8
    16fa:	19 29       	or	r17, r9
    16fc:	3c c0       	rjmp	.+120    	; 0x1776 <_fpadd_parts+0x192>
    16fe:	23 2b       	or	r18, r19
    1700:	d1 f1       	breq	.+116    	; 0x1776 <_fpadd_parts+0x192>
    1702:	26 0e       	add	r2, r22
    1704:	37 1e       	adc	r3, r23
    1706:	35 01       	movw	r6, r10
    1708:	46 01       	movw	r8, r12
    170a:	06 2e       	mov	r0, r22
    170c:	04 c0       	rjmp	.+8      	; 0x1716 <_fpadd_parts+0x132>
    170e:	96 94       	lsr	r9
    1710:	87 94       	ror	r8
    1712:	77 94       	ror	r7
    1714:	67 94       	ror	r6
    1716:	0a 94       	dec	r0
    1718:	d2 f7       	brpl	.-12     	; 0x170e <_fpadd_parts+0x12a>
    171a:	21 e0       	ldi	r18, 0x01	; 1
    171c:	30 e0       	ldi	r19, 0x00	; 0
    171e:	40 e0       	ldi	r20, 0x00	; 0
    1720:	50 e0       	ldi	r21, 0x00	; 0
    1722:	04 c0       	rjmp	.+8      	; 0x172c <_fpadd_parts+0x148>
    1724:	22 0f       	add	r18, r18
    1726:	33 1f       	adc	r19, r19
    1728:	44 1f       	adc	r20, r20
    172a:	55 1f       	adc	r21, r21
    172c:	6a 95       	dec	r22
    172e:	d2 f7       	brpl	.-12     	; 0x1724 <_fpadd_parts+0x140>
    1730:	21 50       	subi	r18, 0x01	; 1
    1732:	30 40       	sbci	r19, 0x00	; 0
    1734:	40 40       	sbci	r20, 0x00	; 0
    1736:	50 40       	sbci	r21, 0x00	; 0
    1738:	2a 21       	and	r18, r10
    173a:	3b 21       	and	r19, r11
    173c:	4c 21       	and	r20, r12
    173e:	5d 21       	and	r21, r13
    1740:	21 15       	cp	r18, r1
    1742:	31 05       	cpc	r19, r1
    1744:	41 05       	cpc	r20, r1
    1746:	51 05       	cpc	r21, r1
    1748:	21 f0       	breq	.+8      	; 0x1752 <_fpadd_parts+0x16e>
    174a:	21 e0       	ldi	r18, 0x01	; 1
    174c:	30 e0       	ldi	r19, 0x00	; 0
    174e:	40 e0       	ldi	r20, 0x00	; 0
    1750:	50 e0       	ldi	r21, 0x00	; 0
    1752:	59 01       	movw	r10, r18
    1754:	6a 01       	movw	r12, r20
    1756:	a6 28       	or	r10, r6
    1758:	b7 28       	or	r11, r7
    175a:	c8 28       	or	r12, r8
    175c:	d9 28       	or	r13, r9
    175e:	0b c0       	rjmp	.+22     	; 0x1776 <_fpadd_parts+0x192>
    1760:	82 15       	cp	r24, r2
    1762:	93 05       	cpc	r25, r3
    1764:	2c f0       	brlt	.+10     	; 0x1770 <_fpadd_parts+0x18c>
    1766:	1c 01       	movw	r2, r24
    1768:	aa 24       	eor	r10, r10
    176a:	bb 24       	eor	r11, r11
    176c:	65 01       	movw	r12, r10
    176e:	03 c0       	rjmp	.+6      	; 0x1776 <_fpadd_parts+0x192>
    1770:	ee 24       	eor	r14, r14
    1772:	ff 24       	eor	r15, r15
    1774:	87 01       	movw	r16, r14
    1776:	11 96       	adiw	r26, 0x01	; 1
    1778:	9c 91       	ld	r25, X
    177a:	d2 01       	movw	r26, r4
    177c:	11 96       	adiw	r26, 0x01	; 1
    177e:	8c 91       	ld	r24, X
    1780:	98 17       	cp	r25, r24
    1782:	09 f4       	brne	.+2      	; 0x1786 <_fpadd_parts+0x1a2>
    1784:	45 c0       	rjmp	.+138    	; 0x1810 <_fpadd_parts+0x22c>
    1786:	99 23       	and	r25, r25
    1788:	39 f0       	breq	.+14     	; 0x1798 <_fpadd_parts+0x1b4>
    178a:	a8 01       	movw	r20, r16
    178c:	97 01       	movw	r18, r14
    178e:	2a 19       	sub	r18, r10
    1790:	3b 09       	sbc	r19, r11
    1792:	4c 09       	sbc	r20, r12
    1794:	5d 09       	sbc	r21, r13
    1796:	06 c0       	rjmp	.+12     	; 0x17a4 <_fpadd_parts+0x1c0>
    1798:	a6 01       	movw	r20, r12
    179a:	95 01       	movw	r18, r10
    179c:	2e 19       	sub	r18, r14
    179e:	3f 09       	sbc	r19, r15
    17a0:	40 0b       	sbc	r20, r16
    17a2:	51 0b       	sbc	r21, r17
    17a4:	57 fd       	sbrc	r21, 7
    17a6:	08 c0       	rjmp	.+16     	; 0x17b8 <_fpadd_parts+0x1d4>
    17a8:	11 82       	std	Z+1, r1	; 0x01
    17aa:	33 82       	std	Z+3, r3	; 0x03
    17ac:	22 82       	std	Z+2, r2	; 0x02
    17ae:	24 83       	std	Z+4, r18	; 0x04
    17b0:	35 83       	std	Z+5, r19	; 0x05
    17b2:	46 83       	std	Z+6, r20	; 0x06
    17b4:	57 83       	std	Z+7, r21	; 0x07
    17b6:	1d c0       	rjmp	.+58     	; 0x17f2 <_fpadd_parts+0x20e>
    17b8:	81 e0       	ldi	r24, 0x01	; 1
    17ba:	81 83       	std	Z+1, r24	; 0x01
    17bc:	33 82       	std	Z+3, r3	; 0x03
    17be:	22 82       	std	Z+2, r2	; 0x02
    17c0:	88 27       	eor	r24, r24
    17c2:	99 27       	eor	r25, r25
    17c4:	dc 01       	movw	r26, r24
    17c6:	82 1b       	sub	r24, r18
    17c8:	93 0b       	sbc	r25, r19
    17ca:	a4 0b       	sbc	r26, r20
    17cc:	b5 0b       	sbc	r27, r21
    17ce:	84 83       	std	Z+4, r24	; 0x04
    17d0:	95 83       	std	Z+5, r25	; 0x05
    17d2:	a6 83       	std	Z+6, r26	; 0x06
    17d4:	b7 83       	std	Z+7, r27	; 0x07
    17d6:	0d c0       	rjmp	.+26     	; 0x17f2 <_fpadd_parts+0x20e>
    17d8:	22 0f       	add	r18, r18
    17da:	33 1f       	adc	r19, r19
    17dc:	44 1f       	adc	r20, r20
    17de:	55 1f       	adc	r21, r21
    17e0:	24 83       	std	Z+4, r18	; 0x04
    17e2:	35 83       	std	Z+5, r19	; 0x05
    17e4:	46 83       	std	Z+6, r20	; 0x06
    17e6:	57 83       	std	Z+7, r21	; 0x07
    17e8:	82 81       	ldd	r24, Z+2	; 0x02
    17ea:	93 81       	ldd	r25, Z+3	; 0x03
    17ec:	01 97       	sbiw	r24, 0x01	; 1
    17ee:	93 83       	std	Z+3, r25	; 0x03
    17f0:	82 83       	std	Z+2, r24	; 0x02
    17f2:	24 81       	ldd	r18, Z+4	; 0x04
    17f4:	35 81       	ldd	r19, Z+5	; 0x05
    17f6:	46 81       	ldd	r20, Z+6	; 0x06
    17f8:	57 81       	ldd	r21, Z+7	; 0x07
    17fa:	da 01       	movw	r26, r20
    17fc:	c9 01       	movw	r24, r18
    17fe:	01 97       	sbiw	r24, 0x01	; 1
    1800:	a1 09       	sbc	r26, r1
    1802:	b1 09       	sbc	r27, r1
    1804:	8f 5f       	subi	r24, 0xFF	; 255
    1806:	9f 4f       	sbci	r25, 0xFF	; 255
    1808:	af 4f       	sbci	r26, 0xFF	; 255
    180a:	bf 43       	sbci	r27, 0x3F	; 63
    180c:	28 f3       	brcs	.-54     	; 0x17d8 <_fpadd_parts+0x1f4>
    180e:	0b c0       	rjmp	.+22     	; 0x1826 <_fpadd_parts+0x242>
    1810:	91 83       	std	Z+1, r25	; 0x01
    1812:	33 82       	std	Z+3, r3	; 0x03
    1814:	22 82       	std	Z+2, r2	; 0x02
    1816:	ea 0c       	add	r14, r10
    1818:	fb 1c       	adc	r15, r11
    181a:	0c 1d       	adc	r16, r12
    181c:	1d 1d       	adc	r17, r13
    181e:	e4 82       	std	Z+4, r14	; 0x04
    1820:	f5 82       	std	Z+5, r15	; 0x05
    1822:	06 83       	std	Z+6, r16	; 0x06
    1824:	17 83       	std	Z+7, r17	; 0x07
    1826:	83 e0       	ldi	r24, 0x03	; 3
    1828:	80 83       	st	Z, r24
    182a:	24 81       	ldd	r18, Z+4	; 0x04
    182c:	35 81       	ldd	r19, Z+5	; 0x05
    182e:	46 81       	ldd	r20, Z+6	; 0x06
    1830:	57 81       	ldd	r21, Z+7	; 0x07
    1832:	57 ff       	sbrs	r21, 7
    1834:	1a c0       	rjmp	.+52     	; 0x186a <_fpadd_parts+0x286>
    1836:	c9 01       	movw	r24, r18
    1838:	aa 27       	eor	r26, r26
    183a:	97 fd       	sbrc	r25, 7
    183c:	a0 95       	com	r26
    183e:	ba 2f       	mov	r27, r26
    1840:	81 70       	andi	r24, 0x01	; 1
    1842:	90 70       	andi	r25, 0x00	; 0
    1844:	a0 70       	andi	r26, 0x00	; 0
    1846:	b0 70       	andi	r27, 0x00	; 0
    1848:	56 95       	lsr	r21
    184a:	47 95       	ror	r20
    184c:	37 95       	ror	r19
    184e:	27 95       	ror	r18
    1850:	82 2b       	or	r24, r18
    1852:	93 2b       	or	r25, r19
    1854:	a4 2b       	or	r26, r20
    1856:	b5 2b       	or	r27, r21
    1858:	84 83       	std	Z+4, r24	; 0x04
    185a:	95 83       	std	Z+5, r25	; 0x05
    185c:	a6 83       	std	Z+6, r26	; 0x06
    185e:	b7 83       	std	Z+7, r27	; 0x07
    1860:	82 81       	ldd	r24, Z+2	; 0x02
    1862:	93 81       	ldd	r25, Z+3	; 0x03
    1864:	01 96       	adiw	r24, 0x01	; 1
    1866:	93 83       	std	Z+3, r25	; 0x03
    1868:	82 83       	std	Z+2, r24	; 0x02
    186a:	df 01       	movw	r26, r30
    186c:	01 c0       	rjmp	.+2      	; 0x1870 <_fpadd_parts+0x28c>
    186e:	d2 01       	movw	r26, r4
    1870:	cd 01       	movw	r24, r26
    1872:	cd b7       	in	r28, 0x3d	; 61
    1874:	de b7       	in	r29, 0x3e	; 62
    1876:	e2 e1       	ldi	r30, 0x12	; 18
    1878:	0c 94 0e 12 	jmp	0x241c	; 0x241c <__epilogue_restores__>

0000187c <__subsf3>:
    187c:	a0 e2       	ldi	r26, 0x20	; 32
    187e:	b0 e0       	ldi	r27, 0x00	; 0
    1880:	e4 e4       	ldi	r30, 0x44	; 68
    1882:	fc e0       	ldi	r31, 0x0C	; 12
    1884:	0c 94 fe 11 	jmp	0x23fc	; 0x23fc <__prologue_saves__+0x18>
    1888:	69 83       	std	Y+1, r22	; 0x01
    188a:	7a 83       	std	Y+2, r23	; 0x02
    188c:	8b 83       	std	Y+3, r24	; 0x03
    188e:	9c 83       	std	Y+4, r25	; 0x04
    1890:	2d 83       	std	Y+5, r18	; 0x05
    1892:	3e 83       	std	Y+6, r19	; 0x06
    1894:	4f 83       	std	Y+7, r20	; 0x07
    1896:	58 87       	std	Y+8, r21	; 0x08
    1898:	e9 e0       	ldi	r30, 0x09	; 9
    189a:	ee 2e       	mov	r14, r30
    189c:	f1 2c       	mov	r15, r1
    189e:	ec 0e       	add	r14, r28
    18a0:	fd 1e       	adc	r15, r29
    18a2:	ce 01       	movw	r24, r28
    18a4:	01 96       	adiw	r24, 0x01	; 1
    18a6:	b7 01       	movw	r22, r14
    18a8:	0e 94 21 11 	call	0x2242	; 0x2242 <__unpack_f>
    18ac:	8e 01       	movw	r16, r28
    18ae:	0f 5e       	subi	r16, 0xEF	; 239
    18b0:	1f 4f       	sbci	r17, 0xFF	; 255
    18b2:	ce 01       	movw	r24, r28
    18b4:	05 96       	adiw	r24, 0x05	; 5
    18b6:	b8 01       	movw	r22, r16
    18b8:	0e 94 21 11 	call	0x2242	; 0x2242 <__unpack_f>
    18bc:	8a 89       	ldd	r24, Y+18	; 0x12
    18be:	91 e0       	ldi	r25, 0x01	; 1
    18c0:	89 27       	eor	r24, r25
    18c2:	8a 8b       	std	Y+18, r24	; 0x12
    18c4:	c7 01       	movw	r24, r14
    18c6:	b8 01       	movw	r22, r16
    18c8:	ae 01       	movw	r20, r28
    18ca:	47 5e       	subi	r20, 0xE7	; 231
    18cc:	5f 4f       	sbci	r21, 0xFF	; 255
    18ce:	0e 94 f2 0a 	call	0x15e4	; 0x15e4 <_fpadd_parts>
    18d2:	0e 94 4c 10 	call	0x2098	; 0x2098 <__pack_f>
    18d6:	a0 96       	adiw	r28, 0x20	; 32
    18d8:	e6 e0       	ldi	r30, 0x06	; 6
    18da:	0c 94 1a 12 	jmp	0x2434	; 0x2434 <__epilogue_restores__+0x18>

000018de <__addsf3>:
    18de:	a0 e2       	ldi	r26, 0x20	; 32
    18e0:	b0 e0       	ldi	r27, 0x00	; 0
    18e2:	e5 e7       	ldi	r30, 0x75	; 117
    18e4:	fc e0       	ldi	r31, 0x0C	; 12
    18e6:	0c 94 fe 11 	jmp	0x23fc	; 0x23fc <__prologue_saves__+0x18>
    18ea:	69 83       	std	Y+1, r22	; 0x01
    18ec:	7a 83       	std	Y+2, r23	; 0x02
    18ee:	8b 83       	std	Y+3, r24	; 0x03
    18f0:	9c 83       	std	Y+4, r25	; 0x04
    18f2:	2d 83       	std	Y+5, r18	; 0x05
    18f4:	3e 83       	std	Y+6, r19	; 0x06
    18f6:	4f 83       	std	Y+7, r20	; 0x07
    18f8:	58 87       	std	Y+8, r21	; 0x08
    18fa:	f9 e0       	ldi	r31, 0x09	; 9
    18fc:	ef 2e       	mov	r14, r31
    18fe:	f1 2c       	mov	r15, r1
    1900:	ec 0e       	add	r14, r28
    1902:	fd 1e       	adc	r15, r29
    1904:	ce 01       	movw	r24, r28
    1906:	01 96       	adiw	r24, 0x01	; 1
    1908:	b7 01       	movw	r22, r14
    190a:	0e 94 21 11 	call	0x2242	; 0x2242 <__unpack_f>
    190e:	8e 01       	movw	r16, r28
    1910:	0f 5e       	subi	r16, 0xEF	; 239
    1912:	1f 4f       	sbci	r17, 0xFF	; 255
    1914:	ce 01       	movw	r24, r28
    1916:	05 96       	adiw	r24, 0x05	; 5
    1918:	b8 01       	movw	r22, r16
    191a:	0e 94 21 11 	call	0x2242	; 0x2242 <__unpack_f>
    191e:	c7 01       	movw	r24, r14
    1920:	b8 01       	movw	r22, r16
    1922:	ae 01       	movw	r20, r28
    1924:	47 5e       	subi	r20, 0xE7	; 231
    1926:	5f 4f       	sbci	r21, 0xFF	; 255
    1928:	0e 94 f2 0a 	call	0x15e4	; 0x15e4 <_fpadd_parts>
    192c:	0e 94 4c 10 	call	0x2098	; 0x2098 <__pack_f>
    1930:	a0 96       	adiw	r28, 0x20	; 32
    1932:	e6 e0       	ldi	r30, 0x06	; 6
    1934:	0c 94 1a 12 	jmp	0x2434	; 0x2434 <__epilogue_restores__+0x18>

00001938 <__mulsf3>:
    1938:	a0 e2       	ldi	r26, 0x20	; 32
    193a:	b0 e0       	ldi	r27, 0x00	; 0
    193c:	e2 ea       	ldi	r30, 0xA2	; 162
    193e:	fc e0       	ldi	r31, 0x0C	; 12
    1940:	0c 94 f2 11 	jmp	0x23e4	; 0x23e4 <__prologue_saves__>
    1944:	69 83       	std	Y+1, r22	; 0x01
    1946:	7a 83       	std	Y+2, r23	; 0x02
    1948:	8b 83       	std	Y+3, r24	; 0x03
    194a:	9c 83       	std	Y+4, r25	; 0x04
    194c:	2d 83       	std	Y+5, r18	; 0x05
    194e:	3e 83       	std	Y+6, r19	; 0x06
    1950:	4f 83       	std	Y+7, r20	; 0x07
    1952:	58 87       	std	Y+8, r21	; 0x08
    1954:	ce 01       	movw	r24, r28
    1956:	01 96       	adiw	r24, 0x01	; 1
    1958:	be 01       	movw	r22, r28
    195a:	67 5f       	subi	r22, 0xF7	; 247
    195c:	7f 4f       	sbci	r23, 0xFF	; 255
    195e:	0e 94 21 11 	call	0x2242	; 0x2242 <__unpack_f>
    1962:	ce 01       	movw	r24, r28
    1964:	05 96       	adiw	r24, 0x05	; 5
    1966:	be 01       	movw	r22, r28
    1968:	6f 5e       	subi	r22, 0xEF	; 239
    196a:	7f 4f       	sbci	r23, 0xFF	; 255
    196c:	0e 94 21 11 	call	0x2242	; 0x2242 <__unpack_f>
    1970:	99 85       	ldd	r25, Y+9	; 0x09
    1972:	92 30       	cpi	r25, 0x02	; 2
    1974:	88 f0       	brcs	.+34     	; 0x1998 <__mulsf3+0x60>
    1976:	89 89       	ldd	r24, Y+17	; 0x11
    1978:	82 30       	cpi	r24, 0x02	; 2
    197a:	c8 f0       	brcs	.+50     	; 0x19ae <__mulsf3+0x76>
    197c:	94 30       	cpi	r25, 0x04	; 4
    197e:	19 f4       	brne	.+6      	; 0x1986 <__mulsf3+0x4e>
    1980:	82 30       	cpi	r24, 0x02	; 2
    1982:	51 f4       	brne	.+20     	; 0x1998 <__mulsf3+0x60>
    1984:	04 c0       	rjmp	.+8      	; 0x198e <__mulsf3+0x56>
    1986:	84 30       	cpi	r24, 0x04	; 4
    1988:	29 f4       	brne	.+10     	; 0x1994 <__mulsf3+0x5c>
    198a:	92 30       	cpi	r25, 0x02	; 2
    198c:	81 f4       	brne	.+32     	; 0x19ae <__mulsf3+0x76>
    198e:	89 e5       	ldi	r24, 0x59	; 89
    1990:	91 e0       	ldi	r25, 0x01	; 1
    1992:	c6 c0       	rjmp	.+396    	; 0x1b20 <__mulsf3+0x1e8>
    1994:	92 30       	cpi	r25, 0x02	; 2
    1996:	49 f4       	brne	.+18     	; 0x19aa <__mulsf3+0x72>
    1998:	20 e0       	ldi	r18, 0x00	; 0
    199a:	9a 85       	ldd	r25, Y+10	; 0x0a
    199c:	8a 89       	ldd	r24, Y+18	; 0x12
    199e:	98 13       	cpse	r25, r24
    19a0:	21 e0       	ldi	r18, 0x01	; 1
    19a2:	2a 87       	std	Y+10, r18	; 0x0a
    19a4:	ce 01       	movw	r24, r28
    19a6:	09 96       	adiw	r24, 0x09	; 9
    19a8:	bb c0       	rjmp	.+374    	; 0x1b20 <__mulsf3+0x1e8>
    19aa:	82 30       	cpi	r24, 0x02	; 2
    19ac:	49 f4       	brne	.+18     	; 0x19c0 <__mulsf3+0x88>
    19ae:	20 e0       	ldi	r18, 0x00	; 0
    19b0:	9a 85       	ldd	r25, Y+10	; 0x0a
    19b2:	8a 89       	ldd	r24, Y+18	; 0x12
    19b4:	98 13       	cpse	r25, r24
    19b6:	21 e0       	ldi	r18, 0x01	; 1
    19b8:	2a 8b       	std	Y+18, r18	; 0x12
    19ba:	ce 01       	movw	r24, r28
    19bc:	41 96       	adiw	r24, 0x11	; 17
    19be:	b0 c0       	rjmp	.+352    	; 0x1b20 <__mulsf3+0x1e8>
    19c0:	2d 84       	ldd	r2, Y+13	; 0x0d
    19c2:	3e 84       	ldd	r3, Y+14	; 0x0e
    19c4:	4f 84       	ldd	r4, Y+15	; 0x0f
    19c6:	58 88       	ldd	r5, Y+16	; 0x10
    19c8:	6d 88       	ldd	r6, Y+21	; 0x15
    19ca:	7e 88       	ldd	r7, Y+22	; 0x16
    19cc:	8f 88       	ldd	r8, Y+23	; 0x17
    19ce:	98 8c       	ldd	r9, Y+24	; 0x18
    19d0:	ee 24       	eor	r14, r14
    19d2:	ff 24       	eor	r15, r15
    19d4:	87 01       	movw	r16, r14
    19d6:	aa 24       	eor	r10, r10
    19d8:	bb 24       	eor	r11, r11
    19da:	65 01       	movw	r12, r10
    19dc:	40 e0       	ldi	r20, 0x00	; 0
    19de:	50 e0       	ldi	r21, 0x00	; 0
    19e0:	60 e0       	ldi	r22, 0x00	; 0
    19e2:	70 e0       	ldi	r23, 0x00	; 0
    19e4:	e0 e0       	ldi	r30, 0x00	; 0
    19e6:	f0 e0       	ldi	r31, 0x00	; 0
    19e8:	c1 01       	movw	r24, r2
    19ea:	81 70       	andi	r24, 0x01	; 1
    19ec:	90 70       	andi	r25, 0x00	; 0
    19ee:	89 2b       	or	r24, r25
    19f0:	e9 f0       	breq	.+58     	; 0x1a2c <__mulsf3+0xf4>
    19f2:	e6 0c       	add	r14, r6
    19f4:	f7 1c       	adc	r15, r7
    19f6:	08 1d       	adc	r16, r8
    19f8:	19 1d       	adc	r17, r9
    19fa:	9a 01       	movw	r18, r20
    19fc:	ab 01       	movw	r20, r22
    19fe:	2a 0d       	add	r18, r10
    1a00:	3b 1d       	adc	r19, r11
    1a02:	4c 1d       	adc	r20, r12
    1a04:	5d 1d       	adc	r21, r13
    1a06:	80 e0       	ldi	r24, 0x00	; 0
    1a08:	90 e0       	ldi	r25, 0x00	; 0
    1a0a:	a0 e0       	ldi	r26, 0x00	; 0
    1a0c:	b0 e0       	ldi	r27, 0x00	; 0
    1a0e:	e6 14       	cp	r14, r6
    1a10:	f7 04       	cpc	r15, r7
    1a12:	08 05       	cpc	r16, r8
    1a14:	19 05       	cpc	r17, r9
    1a16:	20 f4       	brcc	.+8      	; 0x1a20 <__mulsf3+0xe8>
    1a18:	81 e0       	ldi	r24, 0x01	; 1
    1a1a:	90 e0       	ldi	r25, 0x00	; 0
    1a1c:	a0 e0       	ldi	r26, 0x00	; 0
    1a1e:	b0 e0       	ldi	r27, 0x00	; 0
    1a20:	ba 01       	movw	r22, r20
    1a22:	a9 01       	movw	r20, r18
    1a24:	48 0f       	add	r20, r24
    1a26:	59 1f       	adc	r21, r25
    1a28:	6a 1f       	adc	r22, r26
    1a2a:	7b 1f       	adc	r23, r27
    1a2c:	aa 0c       	add	r10, r10
    1a2e:	bb 1c       	adc	r11, r11
    1a30:	cc 1c       	adc	r12, r12
    1a32:	dd 1c       	adc	r13, r13
    1a34:	97 fe       	sbrs	r9, 7
    1a36:	08 c0       	rjmp	.+16     	; 0x1a48 <__mulsf3+0x110>
    1a38:	81 e0       	ldi	r24, 0x01	; 1
    1a3a:	90 e0       	ldi	r25, 0x00	; 0
    1a3c:	a0 e0       	ldi	r26, 0x00	; 0
    1a3e:	b0 e0       	ldi	r27, 0x00	; 0
    1a40:	a8 2a       	or	r10, r24
    1a42:	b9 2a       	or	r11, r25
    1a44:	ca 2a       	or	r12, r26
    1a46:	db 2a       	or	r13, r27
    1a48:	31 96       	adiw	r30, 0x01	; 1
    1a4a:	e0 32       	cpi	r30, 0x20	; 32
    1a4c:	f1 05       	cpc	r31, r1
    1a4e:	49 f0       	breq	.+18     	; 0x1a62 <__mulsf3+0x12a>
    1a50:	66 0c       	add	r6, r6
    1a52:	77 1c       	adc	r7, r7
    1a54:	88 1c       	adc	r8, r8
    1a56:	99 1c       	adc	r9, r9
    1a58:	56 94       	lsr	r5
    1a5a:	47 94       	ror	r4
    1a5c:	37 94       	ror	r3
    1a5e:	27 94       	ror	r2
    1a60:	c3 cf       	rjmp	.-122    	; 0x19e8 <__mulsf3+0xb0>
    1a62:	fa 85       	ldd	r31, Y+10	; 0x0a
    1a64:	ea 89       	ldd	r30, Y+18	; 0x12
    1a66:	2b 89       	ldd	r18, Y+19	; 0x13
    1a68:	3c 89       	ldd	r19, Y+20	; 0x14
    1a6a:	8b 85       	ldd	r24, Y+11	; 0x0b
    1a6c:	9c 85       	ldd	r25, Y+12	; 0x0c
    1a6e:	28 0f       	add	r18, r24
    1a70:	39 1f       	adc	r19, r25
    1a72:	2e 5f       	subi	r18, 0xFE	; 254
    1a74:	3f 4f       	sbci	r19, 0xFF	; 255
    1a76:	17 c0       	rjmp	.+46     	; 0x1aa6 <__mulsf3+0x16e>
    1a78:	ca 01       	movw	r24, r20
    1a7a:	81 70       	andi	r24, 0x01	; 1
    1a7c:	90 70       	andi	r25, 0x00	; 0
    1a7e:	89 2b       	or	r24, r25
    1a80:	61 f0       	breq	.+24     	; 0x1a9a <__mulsf3+0x162>
    1a82:	16 95       	lsr	r17
    1a84:	07 95       	ror	r16
    1a86:	f7 94       	ror	r15
    1a88:	e7 94       	ror	r14
    1a8a:	80 e0       	ldi	r24, 0x00	; 0
    1a8c:	90 e0       	ldi	r25, 0x00	; 0
    1a8e:	a0 e0       	ldi	r26, 0x00	; 0
    1a90:	b0 e8       	ldi	r27, 0x80	; 128
    1a92:	e8 2a       	or	r14, r24
    1a94:	f9 2a       	or	r15, r25
    1a96:	0a 2b       	or	r16, r26
    1a98:	1b 2b       	or	r17, r27
    1a9a:	76 95       	lsr	r23
    1a9c:	67 95       	ror	r22
    1a9e:	57 95       	ror	r21
    1aa0:	47 95       	ror	r20
    1aa2:	2f 5f       	subi	r18, 0xFF	; 255
    1aa4:	3f 4f       	sbci	r19, 0xFF	; 255
    1aa6:	77 fd       	sbrc	r23, 7
    1aa8:	e7 cf       	rjmp	.-50     	; 0x1a78 <__mulsf3+0x140>
    1aaa:	0c c0       	rjmp	.+24     	; 0x1ac4 <__mulsf3+0x18c>
    1aac:	44 0f       	add	r20, r20
    1aae:	55 1f       	adc	r21, r21
    1ab0:	66 1f       	adc	r22, r22
    1ab2:	77 1f       	adc	r23, r23
    1ab4:	17 fd       	sbrc	r17, 7
    1ab6:	41 60       	ori	r20, 0x01	; 1
    1ab8:	ee 0c       	add	r14, r14
    1aba:	ff 1c       	adc	r15, r15
    1abc:	00 1f       	adc	r16, r16
    1abe:	11 1f       	adc	r17, r17
    1ac0:	21 50       	subi	r18, 0x01	; 1
    1ac2:	30 40       	sbci	r19, 0x00	; 0
    1ac4:	40 30       	cpi	r20, 0x00	; 0
    1ac6:	90 e0       	ldi	r25, 0x00	; 0
    1ac8:	59 07       	cpc	r21, r25
    1aca:	90 e0       	ldi	r25, 0x00	; 0
    1acc:	69 07       	cpc	r22, r25
    1ace:	90 e4       	ldi	r25, 0x40	; 64
    1ad0:	79 07       	cpc	r23, r25
    1ad2:	60 f3       	brcs	.-40     	; 0x1aac <__mulsf3+0x174>
    1ad4:	2b 8f       	std	Y+27, r18	; 0x1b
    1ad6:	3c 8f       	std	Y+28, r19	; 0x1c
    1ad8:	db 01       	movw	r26, r22
    1ada:	ca 01       	movw	r24, r20
    1adc:	8f 77       	andi	r24, 0x7F	; 127
    1ade:	90 70       	andi	r25, 0x00	; 0
    1ae0:	a0 70       	andi	r26, 0x00	; 0
    1ae2:	b0 70       	andi	r27, 0x00	; 0
    1ae4:	80 34       	cpi	r24, 0x40	; 64
    1ae6:	91 05       	cpc	r25, r1
    1ae8:	a1 05       	cpc	r26, r1
    1aea:	b1 05       	cpc	r27, r1
    1aec:	61 f4       	brne	.+24     	; 0x1b06 <__mulsf3+0x1ce>
    1aee:	47 fd       	sbrc	r20, 7
    1af0:	0a c0       	rjmp	.+20     	; 0x1b06 <__mulsf3+0x1ce>
    1af2:	e1 14       	cp	r14, r1
    1af4:	f1 04       	cpc	r15, r1
    1af6:	01 05       	cpc	r16, r1
    1af8:	11 05       	cpc	r17, r1
    1afa:	29 f0       	breq	.+10     	; 0x1b06 <__mulsf3+0x1ce>
    1afc:	40 5c       	subi	r20, 0xC0	; 192
    1afe:	5f 4f       	sbci	r21, 0xFF	; 255
    1b00:	6f 4f       	sbci	r22, 0xFF	; 255
    1b02:	7f 4f       	sbci	r23, 0xFF	; 255
    1b04:	40 78       	andi	r20, 0x80	; 128
    1b06:	1a 8e       	std	Y+26, r1	; 0x1a
    1b08:	fe 17       	cp	r31, r30
    1b0a:	11 f0       	breq	.+4      	; 0x1b10 <__mulsf3+0x1d8>
    1b0c:	81 e0       	ldi	r24, 0x01	; 1
    1b0e:	8a 8f       	std	Y+26, r24	; 0x1a
    1b10:	4d 8f       	std	Y+29, r20	; 0x1d
    1b12:	5e 8f       	std	Y+30, r21	; 0x1e
    1b14:	6f 8f       	std	Y+31, r22	; 0x1f
    1b16:	78 a3       	std	Y+32, r23	; 0x20
    1b18:	83 e0       	ldi	r24, 0x03	; 3
    1b1a:	89 8f       	std	Y+25, r24	; 0x19
    1b1c:	ce 01       	movw	r24, r28
    1b1e:	49 96       	adiw	r24, 0x19	; 25
    1b20:	0e 94 4c 10 	call	0x2098	; 0x2098 <__pack_f>
    1b24:	a0 96       	adiw	r28, 0x20	; 32
    1b26:	e2 e1       	ldi	r30, 0x12	; 18
    1b28:	0c 94 0e 12 	jmp	0x241c	; 0x241c <__epilogue_restores__>

00001b2c <__divsf3>:
    1b2c:	a8 e1       	ldi	r26, 0x18	; 24
    1b2e:	b0 e0       	ldi	r27, 0x00	; 0
    1b30:	ec e9       	ldi	r30, 0x9C	; 156
    1b32:	fd e0       	ldi	r31, 0x0D	; 13
    1b34:	0c 94 fa 11 	jmp	0x23f4	; 0x23f4 <__prologue_saves__+0x10>
    1b38:	69 83       	std	Y+1, r22	; 0x01
    1b3a:	7a 83       	std	Y+2, r23	; 0x02
    1b3c:	8b 83       	std	Y+3, r24	; 0x03
    1b3e:	9c 83       	std	Y+4, r25	; 0x04
    1b40:	2d 83       	std	Y+5, r18	; 0x05
    1b42:	3e 83       	std	Y+6, r19	; 0x06
    1b44:	4f 83       	std	Y+7, r20	; 0x07
    1b46:	58 87       	std	Y+8, r21	; 0x08
    1b48:	b9 e0       	ldi	r27, 0x09	; 9
    1b4a:	eb 2e       	mov	r14, r27
    1b4c:	f1 2c       	mov	r15, r1
    1b4e:	ec 0e       	add	r14, r28
    1b50:	fd 1e       	adc	r15, r29
    1b52:	ce 01       	movw	r24, r28
    1b54:	01 96       	adiw	r24, 0x01	; 1
    1b56:	b7 01       	movw	r22, r14
    1b58:	0e 94 21 11 	call	0x2242	; 0x2242 <__unpack_f>
    1b5c:	8e 01       	movw	r16, r28
    1b5e:	0f 5e       	subi	r16, 0xEF	; 239
    1b60:	1f 4f       	sbci	r17, 0xFF	; 255
    1b62:	ce 01       	movw	r24, r28
    1b64:	05 96       	adiw	r24, 0x05	; 5
    1b66:	b8 01       	movw	r22, r16
    1b68:	0e 94 21 11 	call	0x2242	; 0x2242 <__unpack_f>
    1b6c:	29 85       	ldd	r18, Y+9	; 0x09
    1b6e:	22 30       	cpi	r18, 0x02	; 2
    1b70:	08 f4       	brcc	.+2      	; 0x1b74 <__divsf3+0x48>
    1b72:	7e c0       	rjmp	.+252    	; 0x1c70 <__divsf3+0x144>
    1b74:	39 89       	ldd	r19, Y+17	; 0x11
    1b76:	32 30       	cpi	r19, 0x02	; 2
    1b78:	10 f4       	brcc	.+4      	; 0x1b7e <__divsf3+0x52>
    1b7a:	b8 01       	movw	r22, r16
    1b7c:	7c c0       	rjmp	.+248    	; 0x1c76 <__divsf3+0x14a>
    1b7e:	8a 85       	ldd	r24, Y+10	; 0x0a
    1b80:	9a 89       	ldd	r25, Y+18	; 0x12
    1b82:	89 27       	eor	r24, r25
    1b84:	8a 87       	std	Y+10, r24	; 0x0a
    1b86:	24 30       	cpi	r18, 0x04	; 4
    1b88:	11 f0       	breq	.+4      	; 0x1b8e <__divsf3+0x62>
    1b8a:	22 30       	cpi	r18, 0x02	; 2
    1b8c:	31 f4       	brne	.+12     	; 0x1b9a <__divsf3+0x6e>
    1b8e:	23 17       	cp	r18, r19
    1b90:	09 f0       	breq	.+2      	; 0x1b94 <__divsf3+0x68>
    1b92:	6e c0       	rjmp	.+220    	; 0x1c70 <__divsf3+0x144>
    1b94:	69 e5       	ldi	r22, 0x59	; 89
    1b96:	71 e0       	ldi	r23, 0x01	; 1
    1b98:	6e c0       	rjmp	.+220    	; 0x1c76 <__divsf3+0x14a>
    1b9a:	34 30       	cpi	r19, 0x04	; 4
    1b9c:	39 f4       	brne	.+14     	; 0x1bac <__divsf3+0x80>
    1b9e:	1d 86       	std	Y+13, r1	; 0x0d
    1ba0:	1e 86       	std	Y+14, r1	; 0x0e
    1ba2:	1f 86       	std	Y+15, r1	; 0x0f
    1ba4:	18 8a       	std	Y+16, r1	; 0x10
    1ba6:	1c 86       	std	Y+12, r1	; 0x0c
    1ba8:	1b 86       	std	Y+11, r1	; 0x0b
    1baa:	04 c0       	rjmp	.+8      	; 0x1bb4 <__divsf3+0x88>
    1bac:	32 30       	cpi	r19, 0x02	; 2
    1bae:	21 f4       	brne	.+8      	; 0x1bb8 <__divsf3+0x8c>
    1bb0:	84 e0       	ldi	r24, 0x04	; 4
    1bb2:	89 87       	std	Y+9, r24	; 0x09
    1bb4:	b7 01       	movw	r22, r14
    1bb6:	5f c0       	rjmp	.+190    	; 0x1c76 <__divsf3+0x14a>
    1bb8:	2b 85       	ldd	r18, Y+11	; 0x0b
    1bba:	3c 85       	ldd	r19, Y+12	; 0x0c
    1bbc:	8b 89       	ldd	r24, Y+19	; 0x13
    1bbe:	9c 89       	ldd	r25, Y+20	; 0x14
    1bc0:	28 1b       	sub	r18, r24
    1bc2:	39 0b       	sbc	r19, r25
    1bc4:	3c 87       	std	Y+12, r19	; 0x0c
    1bc6:	2b 87       	std	Y+11, r18	; 0x0b
    1bc8:	ed 84       	ldd	r14, Y+13	; 0x0d
    1bca:	fe 84       	ldd	r15, Y+14	; 0x0e
    1bcc:	0f 85       	ldd	r16, Y+15	; 0x0f
    1bce:	18 89       	ldd	r17, Y+16	; 0x10
    1bd0:	ad 88       	ldd	r10, Y+21	; 0x15
    1bd2:	be 88       	ldd	r11, Y+22	; 0x16
    1bd4:	cf 88       	ldd	r12, Y+23	; 0x17
    1bd6:	d8 8c       	ldd	r13, Y+24	; 0x18
    1bd8:	ea 14       	cp	r14, r10
    1bda:	fb 04       	cpc	r15, r11
    1bdc:	0c 05       	cpc	r16, r12
    1bde:	1d 05       	cpc	r17, r13
    1be0:	40 f4       	brcc	.+16     	; 0x1bf2 <__divsf3+0xc6>
    1be2:	ee 0c       	add	r14, r14
    1be4:	ff 1c       	adc	r15, r15
    1be6:	00 1f       	adc	r16, r16
    1be8:	11 1f       	adc	r17, r17
    1bea:	21 50       	subi	r18, 0x01	; 1
    1bec:	30 40       	sbci	r19, 0x00	; 0
    1bee:	3c 87       	std	Y+12, r19	; 0x0c
    1bf0:	2b 87       	std	Y+11, r18	; 0x0b
    1bf2:	20 e0       	ldi	r18, 0x00	; 0
    1bf4:	30 e0       	ldi	r19, 0x00	; 0
    1bf6:	40 e0       	ldi	r20, 0x00	; 0
    1bf8:	50 e0       	ldi	r21, 0x00	; 0
    1bfa:	80 e0       	ldi	r24, 0x00	; 0
    1bfc:	90 e0       	ldi	r25, 0x00	; 0
    1bfe:	a0 e0       	ldi	r26, 0x00	; 0
    1c00:	b0 e4       	ldi	r27, 0x40	; 64
    1c02:	60 e0       	ldi	r22, 0x00	; 0
    1c04:	70 e0       	ldi	r23, 0x00	; 0
    1c06:	ea 14       	cp	r14, r10
    1c08:	fb 04       	cpc	r15, r11
    1c0a:	0c 05       	cpc	r16, r12
    1c0c:	1d 05       	cpc	r17, r13
    1c0e:	40 f0       	brcs	.+16     	; 0x1c20 <__divsf3+0xf4>
    1c10:	28 2b       	or	r18, r24
    1c12:	39 2b       	or	r19, r25
    1c14:	4a 2b       	or	r20, r26
    1c16:	5b 2b       	or	r21, r27
    1c18:	ea 18       	sub	r14, r10
    1c1a:	fb 08       	sbc	r15, r11
    1c1c:	0c 09       	sbc	r16, r12
    1c1e:	1d 09       	sbc	r17, r13
    1c20:	b6 95       	lsr	r27
    1c22:	a7 95       	ror	r26
    1c24:	97 95       	ror	r25
    1c26:	87 95       	ror	r24
    1c28:	ee 0c       	add	r14, r14
    1c2a:	ff 1c       	adc	r15, r15
    1c2c:	00 1f       	adc	r16, r16
    1c2e:	11 1f       	adc	r17, r17
    1c30:	6f 5f       	subi	r22, 0xFF	; 255
    1c32:	7f 4f       	sbci	r23, 0xFF	; 255
    1c34:	6f 31       	cpi	r22, 0x1F	; 31
    1c36:	71 05       	cpc	r23, r1
    1c38:	31 f7       	brne	.-52     	; 0x1c06 <__divsf3+0xda>
    1c3a:	da 01       	movw	r26, r20
    1c3c:	c9 01       	movw	r24, r18
    1c3e:	8f 77       	andi	r24, 0x7F	; 127
    1c40:	90 70       	andi	r25, 0x00	; 0
    1c42:	a0 70       	andi	r26, 0x00	; 0
    1c44:	b0 70       	andi	r27, 0x00	; 0
    1c46:	80 34       	cpi	r24, 0x40	; 64
    1c48:	91 05       	cpc	r25, r1
    1c4a:	a1 05       	cpc	r26, r1
    1c4c:	b1 05       	cpc	r27, r1
    1c4e:	61 f4       	brne	.+24     	; 0x1c68 <__divsf3+0x13c>
    1c50:	27 fd       	sbrc	r18, 7
    1c52:	0a c0       	rjmp	.+20     	; 0x1c68 <__divsf3+0x13c>
    1c54:	e1 14       	cp	r14, r1
    1c56:	f1 04       	cpc	r15, r1
    1c58:	01 05       	cpc	r16, r1
    1c5a:	11 05       	cpc	r17, r1
    1c5c:	29 f0       	breq	.+10     	; 0x1c68 <__divsf3+0x13c>
    1c5e:	20 5c       	subi	r18, 0xC0	; 192
    1c60:	3f 4f       	sbci	r19, 0xFF	; 255
    1c62:	4f 4f       	sbci	r20, 0xFF	; 255
    1c64:	5f 4f       	sbci	r21, 0xFF	; 255
    1c66:	20 78       	andi	r18, 0x80	; 128
    1c68:	2d 87       	std	Y+13, r18	; 0x0d
    1c6a:	3e 87       	std	Y+14, r19	; 0x0e
    1c6c:	4f 87       	std	Y+15, r20	; 0x0f
    1c6e:	58 8b       	std	Y+16, r21	; 0x10
    1c70:	be 01       	movw	r22, r28
    1c72:	67 5f       	subi	r22, 0xF7	; 247
    1c74:	7f 4f       	sbci	r23, 0xFF	; 255
    1c76:	cb 01       	movw	r24, r22
    1c78:	0e 94 4c 10 	call	0x2098	; 0x2098 <__pack_f>
    1c7c:	68 96       	adiw	r28, 0x18	; 24
    1c7e:	ea e0       	ldi	r30, 0x0A	; 10
    1c80:	0c 94 16 12 	jmp	0x242c	; 0x242c <__epilogue_restores__+0x10>

00001c84 <__gtsf2>:
    1c84:	a8 e1       	ldi	r26, 0x18	; 24
    1c86:	b0 e0       	ldi	r27, 0x00	; 0
    1c88:	e8 e4       	ldi	r30, 0x48	; 72
    1c8a:	fe e0       	ldi	r31, 0x0E	; 14
    1c8c:	0c 94 fe 11 	jmp	0x23fc	; 0x23fc <__prologue_saves__+0x18>
    1c90:	69 83       	std	Y+1, r22	; 0x01
    1c92:	7a 83       	std	Y+2, r23	; 0x02
    1c94:	8b 83       	std	Y+3, r24	; 0x03
    1c96:	9c 83       	std	Y+4, r25	; 0x04
    1c98:	2d 83       	std	Y+5, r18	; 0x05
    1c9a:	3e 83       	std	Y+6, r19	; 0x06
    1c9c:	4f 83       	std	Y+7, r20	; 0x07
    1c9e:	58 87       	std	Y+8, r21	; 0x08
    1ca0:	89 e0       	ldi	r24, 0x09	; 9
    1ca2:	e8 2e       	mov	r14, r24
    1ca4:	f1 2c       	mov	r15, r1
    1ca6:	ec 0e       	add	r14, r28
    1ca8:	fd 1e       	adc	r15, r29
    1caa:	ce 01       	movw	r24, r28
    1cac:	01 96       	adiw	r24, 0x01	; 1
    1cae:	b7 01       	movw	r22, r14
    1cb0:	0e 94 21 11 	call	0x2242	; 0x2242 <__unpack_f>
    1cb4:	8e 01       	movw	r16, r28
    1cb6:	0f 5e       	subi	r16, 0xEF	; 239
    1cb8:	1f 4f       	sbci	r17, 0xFF	; 255
    1cba:	ce 01       	movw	r24, r28
    1cbc:	05 96       	adiw	r24, 0x05	; 5
    1cbe:	b8 01       	movw	r22, r16
    1cc0:	0e 94 21 11 	call	0x2242	; 0x2242 <__unpack_f>
    1cc4:	89 85       	ldd	r24, Y+9	; 0x09
    1cc6:	82 30       	cpi	r24, 0x02	; 2
    1cc8:	40 f0       	brcs	.+16     	; 0x1cda <__gtsf2+0x56>
    1cca:	89 89       	ldd	r24, Y+17	; 0x11
    1ccc:	82 30       	cpi	r24, 0x02	; 2
    1cce:	28 f0       	brcs	.+10     	; 0x1cda <__gtsf2+0x56>
    1cd0:	c7 01       	movw	r24, r14
    1cd2:	b8 01       	movw	r22, r16
    1cd4:	0e 94 99 11 	call	0x2332	; 0x2332 <__fpcmp_parts_f>
    1cd8:	01 c0       	rjmp	.+2      	; 0x1cdc <__gtsf2+0x58>
    1cda:	8f ef       	ldi	r24, 0xFF	; 255
    1cdc:	68 96       	adiw	r28, 0x18	; 24
    1cde:	e6 e0       	ldi	r30, 0x06	; 6
    1ce0:	0c 94 1a 12 	jmp	0x2434	; 0x2434 <__epilogue_restores__+0x18>

00001ce4 <__gesf2>:
    1ce4:	a8 e1       	ldi	r26, 0x18	; 24
    1ce6:	b0 e0       	ldi	r27, 0x00	; 0
    1ce8:	e8 e7       	ldi	r30, 0x78	; 120
    1cea:	fe e0       	ldi	r31, 0x0E	; 14
    1cec:	0c 94 fe 11 	jmp	0x23fc	; 0x23fc <__prologue_saves__+0x18>
    1cf0:	69 83       	std	Y+1, r22	; 0x01
    1cf2:	7a 83       	std	Y+2, r23	; 0x02
    1cf4:	8b 83       	std	Y+3, r24	; 0x03
    1cf6:	9c 83       	std	Y+4, r25	; 0x04
    1cf8:	2d 83       	std	Y+5, r18	; 0x05
    1cfa:	3e 83       	std	Y+6, r19	; 0x06
    1cfc:	4f 83       	std	Y+7, r20	; 0x07
    1cfe:	58 87       	std	Y+8, r21	; 0x08
    1d00:	89 e0       	ldi	r24, 0x09	; 9
    1d02:	e8 2e       	mov	r14, r24
    1d04:	f1 2c       	mov	r15, r1
    1d06:	ec 0e       	add	r14, r28
    1d08:	fd 1e       	adc	r15, r29
    1d0a:	ce 01       	movw	r24, r28
    1d0c:	01 96       	adiw	r24, 0x01	; 1
    1d0e:	b7 01       	movw	r22, r14
    1d10:	0e 94 21 11 	call	0x2242	; 0x2242 <__unpack_f>
    1d14:	8e 01       	movw	r16, r28
    1d16:	0f 5e       	subi	r16, 0xEF	; 239
    1d18:	1f 4f       	sbci	r17, 0xFF	; 255
    1d1a:	ce 01       	movw	r24, r28
    1d1c:	05 96       	adiw	r24, 0x05	; 5
    1d1e:	b8 01       	movw	r22, r16
    1d20:	0e 94 21 11 	call	0x2242	; 0x2242 <__unpack_f>
    1d24:	89 85       	ldd	r24, Y+9	; 0x09
    1d26:	82 30       	cpi	r24, 0x02	; 2
    1d28:	40 f0       	brcs	.+16     	; 0x1d3a <__gesf2+0x56>
    1d2a:	89 89       	ldd	r24, Y+17	; 0x11
    1d2c:	82 30       	cpi	r24, 0x02	; 2
    1d2e:	28 f0       	brcs	.+10     	; 0x1d3a <__gesf2+0x56>
    1d30:	c7 01       	movw	r24, r14
    1d32:	b8 01       	movw	r22, r16
    1d34:	0e 94 99 11 	call	0x2332	; 0x2332 <__fpcmp_parts_f>
    1d38:	01 c0       	rjmp	.+2      	; 0x1d3c <__gesf2+0x58>
    1d3a:	8f ef       	ldi	r24, 0xFF	; 255
    1d3c:	68 96       	adiw	r28, 0x18	; 24
    1d3e:	e6 e0       	ldi	r30, 0x06	; 6
    1d40:	0c 94 1a 12 	jmp	0x2434	; 0x2434 <__epilogue_restores__+0x18>

00001d44 <__ltsf2>:
    1d44:	a8 e1       	ldi	r26, 0x18	; 24
    1d46:	b0 e0       	ldi	r27, 0x00	; 0
    1d48:	e8 ea       	ldi	r30, 0xA8	; 168
    1d4a:	fe e0       	ldi	r31, 0x0E	; 14
    1d4c:	0c 94 fe 11 	jmp	0x23fc	; 0x23fc <__prologue_saves__+0x18>
    1d50:	69 83       	std	Y+1, r22	; 0x01
    1d52:	7a 83       	std	Y+2, r23	; 0x02
    1d54:	8b 83       	std	Y+3, r24	; 0x03
    1d56:	9c 83       	std	Y+4, r25	; 0x04
    1d58:	2d 83       	std	Y+5, r18	; 0x05
    1d5a:	3e 83       	std	Y+6, r19	; 0x06
    1d5c:	4f 83       	std	Y+7, r20	; 0x07
    1d5e:	58 87       	std	Y+8, r21	; 0x08
    1d60:	89 e0       	ldi	r24, 0x09	; 9
    1d62:	e8 2e       	mov	r14, r24
    1d64:	f1 2c       	mov	r15, r1
    1d66:	ec 0e       	add	r14, r28
    1d68:	fd 1e       	adc	r15, r29
    1d6a:	ce 01       	movw	r24, r28
    1d6c:	01 96       	adiw	r24, 0x01	; 1
    1d6e:	b7 01       	movw	r22, r14
    1d70:	0e 94 21 11 	call	0x2242	; 0x2242 <__unpack_f>
    1d74:	8e 01       	movw	r16, r28
    1d76:	0f 5e       	subi	r16, 0xEF	; 239
    1d78:	1f 4f       	sbci	r17, 0xFF	; 255
    1d7a:	ce 01       	movw	r24, r28
    1d7c:	05 96       	adiw	r24, 0x05	; 5
    1d7e:	b8 01       	movw	r22, r16
    1d80:	0e 94 21 11 	call	0x2242	; 0x2242 <__unpack_f>
    1d84:	89 85       	ldd	r24, Y+9	; 0x09
    1d86:	82 30       	cpi	r24, 0x02	; 2
    1d88:	40 f0       	brcs	.+16     	; 0x1d9a <__ltsf2+0x56>
    1d8a:	89 89       	ldd	r24, Y+17	; 0x11
    1d8c:	82 30       	cpi	r24, 0x02	; 2
    1d8e:	28 f0       	brcs	.+10     	; 0x1d9a <__ltsf2+0x56>
    1d90:	c7 01       	movw	r24, r14
    1d92:	b8 01       	movw	r22, r16
    1d94:	0e 94 99 11 	call	0x2332	; 0x2332 <__fpcmp_parts_f>
    1d98:	01 c0       	rjmp	.+2      	; 0x1d9c <__ltsf2+0x58>
    1d9a:	81 e0       	ldi	r24, 0x01	; 1
    1d9c:	68 96       	adiw	r28, 0x18	; 24
    1d9e:	e6 e0       	ldi	r30, 0x06	; 6
    1da0:	0c 94 1a 12 	jmp	0x2434	; 0x2434 <__epilogue_restores__+0x18>

00001da4 <__floatsisf>:
    1da4:	a8 e0       	ldi	r26, 0x08	; 8
    1da6:	b0 e0       	ldi	r27, 0x00	; 0
    1da8:	e8 ed       	ldi	r30, 0xD8	; 216
    1daa:	fe e0       	ldi	r31, 0x0E	; 14
    1dac:	0c 94 fb 11 	jmp	0x23f6	; 0x23f6 <__prologue_saves__+0x12>
    1db0:	9b 01       	movw	r18, r22
    1db2:	ac 01       	movw	r20, r24
    1db4:	83 e0       	ldi	r24, 0x03	; 3
    1db6:	89 83       	std	Y+1, r24	; 0x01
    1db8:	da 01       	movw	r26, r20
    1dba:	c9 01       	movw	r24, r18
    1dbc:	88 27       	eor	r24, r24
    1dbe:	b7 fd       	sbrc	r27, 7
    1dc0:	83 95       	inc	r24
    1dc2:	99 27       	eor	r25, r25
    1dc4:	aa 27       	eor	r26, r26
    1dc6:	bb 27       	eor	r27, r27
    1dc8:	b8 2e       	mov	r11, r24
    1dca:	21 15       	cp	r18, r1
    1dcc:	31 05       	cpc	r19, r1
    1dce:	41 05       	cpc	r20, r1
    1dd0:	51 05       	cpc	r21, r1
    1dd2:	19 f4       	brne	.+6      	; 0x1dda <__floatsisf+0x36>
    1dd4:	82 e0       	ldi	r24, 0x02	; 2
    1dd6:	89 83       	std	Y+1, r24	; 0x01
    1dd8:	3a c0       	rjmp	.+116    	; 0x1e4e <__floatsisf+0xaa>
    1dda:	88 23       	and	r24, r24
    1ddc:	a9 f0       	breq	.+42     	; 0x1e08 <__floatsisf+0x64>
    1dde:	20 30       	cpi	r18, 0x00	; 0
    1de0:	80 e0       	ldi	r24, 0x00	; 0
    1de2:	38 07       	cpc	r19, r24
    1de4:	80 e0       	ldi	r24, 0x00	; 0
    1de6:	48 07       	cpc	r20, r24
    1de8:	80 e8       	ldi	r24, 0x80	; 128
    1dea:	58 07       	cpc	r21, r24
    1dec:	29 f4       	brne	.+10     	; 0x1df8 <__floatsisf+0x54>
    1dee:	60 e0       	ldi	r22, 0x00	; 0
    1df0:	70 e0       	ldi	r23, 0x00	; 0
    1df2:	80 e0       	ldi	r24, 0x00	; 0
    1df4:	9f ec       	ldi	r25, 0xCF	; 207
    1df6:	30 c0       	rjmp	.+96     	; 0x1e58 <__floatsisf+0xb4>
    1df8:	ee 24       	eor	r14, r14
    1dfa:	ff 24       	eor	r15, r15
    1dfc:	87 01       	movw	r16, r14
    1dfe:	e2 1a       	sub	r14, r18
    1e00:	f3 0a       	sbc	r15, r19
    1e02:	04 0b       	sbc	r16, r20
    1e04:	15 0b       	sbc	r17, r21
    1e06:	02 c0       	rjmp	.+4      	; 0x1e0c <__floatsisf+0x68>
    1e08:	79 01       	movw	r14, r18
    1e0a:	8a 01       	movw	r16, r20
    1e0c:	8e e1       	ldi	r24, 0x1E	; 30
    1e0e:	c8 2e       	mov	r12, r24
    1e10:	d1 2c       	mov	r13, r1
    1e12:	dc 82       	std	Y+4, r13	; 0x04
    1e14:	cb 82       	std	Y+3, r12	; 0x03
    1e16:	ed 82       	std	Y+5, r14	; 0x05
    1e18:	fe 82       	std	Y+6, r15	; 0x06
    1e1a:	0f 83       	std	Y+7, r16	; 0x07
    1e1c:	18 87       	std	Y+8, r17	; 0x08
    1e1e:	c8 01       	movw	r24, r16
    1e20:	b7 01       	movw	r22, r14
    1e22:	0e 94 fd 0f 	call	0x1ffa	; 0x1ffa <__clzsi2>
    1e26:	01 97       	sbiw	r24, 0x01	; 1
    1e28:	18 16       	cp	r1, r24
    1e2a:	19 06       	cpc	r1, r25
    1e2c:	84 f4       	brge	.+32     	; 0x1e4e <__floatsisf+0xaa>
    1e2e:	08 2e       	mov	r0, r24
    1e30:	04 c0       	rjmp	.+8      	; 0x1e3a <__floatsisf+0x96>
    1e32:	ee 0c       	add	r14, r14
    1e34:	ff 1c       	adc	r15, r15
    1e36:	00 1f       	adc	r16, r16
    1e38:	11 1f       	adc	r17, r17
    1e3a:	0a 94       	dec	r0
    1e3c:	d2 f7       	brpl	.-12     	; 0x1e32 <__floatsisf+0x8e>
    1e3e:	ed 82       	std	Y+5, r14	; 0x05
    1e40:	fe 82       	std	Y+6, r15	; 0x06
    1e42:	0f 83       	std	Y+7, r16	; 0x07
    1e44:	18 87       	std	Y+8, r17	; 0x08
    1e46:	c8 1a       	sub	r12, r24
    1e48:	d9 0a       	sbc	r13, r25
    1e4a:	dc 82       	std	Y+4, r13	; 0x04
    1e4c:	cb 82       	std	Y+3, r12	; 0x03
    1e4e:	ba 82       	std	Y+2, r11	; 0x02
    1e50:	ce 01       	movw	r24, r28
    1e52:	01 96       	adiw	r24, 0x01	; 1
    1e54:	0e 94 4c 10 	call	0x2098	; 0x2098 <__pack_f>
    1e58:	28 96       	adiw	r28, 0x08	; 8
    1e5a:	e9 e0       	ldi	r30, 0x09	; 9
    1e5c:	0c 94 17 12 	jmp	0x242e	; 0x242e <__epilogue_restores__+0x12>

00001e60 <__fixsfsi>:
    1e60:	ac e0       	ldi	r26, 0x0C	; 12
    1e62:	b0 e0       	ldi	r27, 0x00	; 0
    1e64:	e6 e3       	ldi	r30, 0x36	; 54
    1e66:	ff e0       	ldi	r31, 0x0F	; 15
    1e68:	0c 94 02 12 	jmp	0x2404	; 0x2404 <__prologue_saves__+0x20>
    1e6c:	69 83       	std	Y+1, r22	; 0x01
    1e6e:	7a 83       	std	Y+2, r23	; 0x02
    1e70:	8b 83       	std	Y+3, r24	; 0x03
    1e72:	9c 83       	std	Y+4, r25	; 0x04
    1e74:	ce 01       	movw	r24, r28
    1e76:	01 96       	adiw	r24, 0x01	; 1
    1e78:	be 01       	movw	r22, r28
    1e7a:	6b 5f       	subi	r22, 0xFB	; 251
    1e7c:	7f 4f       	sbci	r23, 0xFF	; 255
    1e7e:	0e 94 21 11 	call	0x2242	; 0x2242 <__unpack_f>
    1e82:	8d 81       	ldd	r24, Y+5	; 0x05
    1e84:	82 30       	cpi	r24, 0x02	; 2
    1e86:	61 f1       	breq	.+88     	; 0x1ee0 <__fixsfsi+0x80>
    1e88:	82 30       	cpi	r24, 0x02	; 2
    1e8a:	50 f1       	brcs	.+84     	; 0x1ee0 <__fixsfsi+0x80>
    1e8c:	84 30       	cpi	r24, 0x04	; 4
    1e8e:	21 f4       	brne	.+8      	; 0x1e98 <__fixsfsi+0x38>
    1e90:	8e 81       	ldd	r24, Y+6	; 0x06
    1e92:	88 23       	and	r24, r24
    1e94:	51 f1       	breq	.+84     	; 0x1eea <__fixsfsi+0x8a>
    1e96:	2e c0       	rjmp	.+92     	; 0x1ef4 <__fixsfsi+0x94>
    1e98:	2f 81       	ldd	r18, Y+7	; 0x07
    1e9a:	38 85       	ldd	r19, Y+8	; 0x08
    1e9c:	37 fd       	sbrc	r19, 7
    1e9e:	20 c0       	rjmp	.+64     	; 0x1ee0 <__fixsfsi+0x80>
    1ea0:	6e 81       	ldd	r22, Y+6	; 0x06
    1ea2:	2f 31       	cpi	r18, 0x1F	; 31
    1ea4:	31 05       	cpc	r19, r1
    1ea6:	1c f0       	brlt	.+6      	; 0x1eae <__fixsfsi+0x4e>
    1ea8:	66 23       	and	r22, r22
    1eaa:	f9 f0       	breq	.+62     	; 0x1eea <__fixsfsi+0x8a>
    1eac:	23 c0       	rjmp	.+70     	; 0x1ef4 <__fixsfsi+0x94>
    1eae:	8e e1       	ldi	r24, 0x1E	; 30
    1eb0:	90 e0       	ldi	r25, 0x00	; 0
    1eb2:	82 1b       	sub	r24, r18
    1eb4:	93 0b       	sbc	r25, r19
    1eb6:	29 85       	ldd	r18, Y+9	; 0x09
    1eb8:	3a 85       	ldd	r19, Y+10	; 0x0a
    1eba:	4b 85       	ldd	r20, Y+11	; 0x0b
    1ebc:	5c 85       	ldd	r21, Y+12	; 0x0c
    1ebe:	04 c0       	rjmp	.+8      	; 0x1ec8 <__fixsfsi+0x68>
    1ec0:	56 95       	lsr	r21
    1ec2:	47 95       	ror	r20
    1ec4:	37 95       	ror	r19
    1ec6:	27 95       	ror	r18
    1ec8:	8a 95       	dec	r24
    1eca:	d2 f7       	brpl	.-12     	; 0x1ec0 <__fixsfsi+0x60>
    1ecc:	66 23       	and	r22, r22
    1ece:	b1 f0       	breq	.+44     	; 0x1efc <__fixsfsi+0x9c>
    1ed0:	50 95       	com	r21
    1ed2:	40 95       	com	r20
    1ed4:	30 95       	com	r19
    1ed6:	21 95       	neg	r18
    1ed8:	3f 4f       	sbci	r19, 0xFF	; 255
    1eda:	4f 4f       	sbci	r20, 0xFF	; 255
    1edc:	5f 4f       	sbci	r21, 0xFF	; 255
    1ede:	0e c0       	rjmp	.+28     	; 0x1efc <__fixsfsi+0x9c>
    1ee0:	20 e0       	ldi	r18, 0x00	; 0
    1ee2:	30 e0       	ldi	r19, 0x00	; 0
    1ee4:	40 e0       	ldi	r20, 0x00	; 0
    1ee6:	50 e0       	ldi	r21, 0x00	; 0
    1ee8:	09 c0       	rjmp	.+18     	; 0x1efc <__fixsfsi+0x9c>
    1eea:	2f ef       	ldi	r18, 0xFF	; 255
    1eec:	3f ef       	ldi	r19, 0xFF	; 255
    1eee:	4f ef       	ldi	r20, 0xFF	; 255
    1ef0:	5f e7       	ldi	r21, 0x7F	; 127
    1ef2:	04 c0       	rjmp	.+8      	; 0x1efc <__fixsfsi+0x9c>
    1ef4:	20 e0       	ldi	r18, 0x00	; 0
    1ef6:	30 e0       	ldi	r19, 0x00	; 0
    1ef8:	40 e0       	ldi	r20, 0x00	; 0
    1efa:	50 e8       	ldi	r21, 0x80	; 128
    1efc:	b9 01       	movw	r22, r18
    1efe:	ca 01       	movw	r24, r20
    1f00:	2c 96       	adiw	r28, 0x0c	; 12
    1f02:	e2 e0       	ldi	r30, 0x02	; 2
    1f04:	0c 94 1e 12 	jmp	0x243c	; 0x243c <__epilogue_restores__+0x20>

00001f08 <__floatunsisf>:
    1f08:	a8 e0       	ldi	r26, 0x08	; 8
    1f0a:	b0 e0       	ldi	r27, 0x00	; 0
    1f0c:	ea e8       	ldi	r30, 0x8A	; 138
    1f0e:	ff e0       	ldi	r31, 0x0F	; 15
    1f10:	0c 94 fa 11 	jmp	0x23f4	; 0x23f4 <__prologue_saves__+0x10>
    1f14:	7b 01       	movw	r14, r22
    1f16:	8c 01       	movw	r16, r24
    1f18:	61 15       	cp	r22, r1
    1f1a:	71 05       	cpc	r23, r1
    1f1c:	81 05       	cpc	r24, r1
    1f1e:	91 05       	cpc	r25, r1
    1f20:	19 f4       	brne	.+6      	; 0x1f28 <__floatunsisf+0x20>
    1f22:	82 e0       	ldi	r24, 0x02	; 2
    1f24:	89 83       	std	Y+1, r24	; 0x01
    1f26:	60 c0       	rjmp	.+192    	; 0x1fe8 <__floatunsisf+0xe0>
    1f28:	83 e0       	ldi	r24, 0x03	; 3
    1f2a:	89 83       	std	Y+1, r24	; 0x01
    1f2c:	8e e1       	ldi	r24, 0x1E	; 30
    1f2e:	c8 2e       	mov	r12, r24
    1f30:	d1 2c       	mov	r13, r1
    1f32:	dc 82       	std	Y+4, r13	; 0x04
    1f34:	cb 82       	std	Y+3, r12	; 0x03
    1f36:	ed 82       	std	Y+5, r14	; 0x05
    1f38:	fe 82       	std	Y+6, r15	; 0x06
    1f3a:	0f 83       	std	Y+7, r16	; 0x07
    1f3c:	18 87       	std	Y+8, r17	; 0x08
    1f3e:	c8 01       	movw	r24, r16
    1f40:	b7 01       	movw	r22, r14
    1f42:	0e 94 fd 0f 	call	0x1ffa	; 0x1ffa <__clzsi2>
    1f46:	fc 01       	movw	r30, r24
    1f48:	31 97       	sbiw	r30, 0x01	; 1
    1f4a:	f7 ff       	sbrs	r31, 7
    1f4c:	3b c0       	rjmp	.+118    	; 0x1fc4 <__floatunsisf+0xbc>
    1f4e:	22 27       	eor	r18, r18
    1f50:	33 27       	eor	r19, r19
    1f52:	2e 1b       	sub	r18, r30
    1f54:	3f 0b       	sbc	r19, r31
    1f56:	57 01       	movw	r10, r14
    1f58:	68 01       	movw	r12, r16
    1f5a:	02 2e       	mov	r0, r18
    1f5c:	04 c0       	rjmp	.+8      	; 0x1f66 <__floatunsisf+0x5e>
    1f5e:	d6 94       	lsr	r13
    1f60:	c7 94       	ror	r12
    1f62:	b7 94       	ror	r11
    1f64:	a7 94       	ror	r10
    1f66:	0a 94       	dec	r0
    1f68:	d2 f7       	brpl	.-12     	; 0x1f5e <__floatunsisf+0x56>
    1f6a:	40 e0       	ldi	r20, 0x00	; 0
    1f6c:	50 e0       	ldi	r21, 0x00	; 0
    1f6e:	60 e0       	ldi	r22, 0x00	; 0
    1f70:	70 e0       	ldi	r23, 0x00	; 0
    1f72:	81 e0       	ldi	r24, 0x01	; 1
    1f74:	90 e0       	ldi	r25, 0x00	; 0
    1f76:	a0 e0       	ldi	r26, 0x00	; 0
    1f78:	b0 e0       	ldi	r27, 0x00	; 0
    1f7a:	04 c0       	rjmp	.+8      	; 0x1f84 <__floatunsisf+0x7c>
    1f7c:	88 0f       	add	r24, r24
    1f7e:	99 1f       	adc	r25, r25
    1f80:	aa 1f       	adc	r26, r26
    1f82:	bb 1f       	adc	r27, r27
    1f84:	2a 95       	dec	r18
    1f86:	d2 f7       	brpl	.-12     	; 0x1f7c <__floatunsisf+0x74>
    1f88:	01 97       	sbiw	r24, 0x01	; 1
    1f8a:	a1 09       	sbc	r26, r1
    1f8c:	b1 09       	sbc	r27, r1
    1f8e:	8e 21       	and	r24, r14
    1f90:	9f 21       	and	r25, r15
    1f92:	a0 23       	and	r26, r16
    1f94:	b1 23       	and	r27, r17
    1f96:	00 97       	sbiw	r24, 0x00	; 0
    1f98:	a1 05       	cpc	r26, r1
    1f9a:	b1 05       	cpc	r27, r1
    1f9c:	21 f0       	breq	.+8      	; 0x1fa6 <__floatunsisf+0x9e>
    1f9e:	41 e0       	ldi	r20, 0x01	; 1
    1fa0:	50 e0       	ldi	r21, 0x00	; 0
    1fa2:	60 e0       	ldi	r22, 0x00	; 0
    1fa4:	70 e0       	ldi	r23, 0x00	; 0
    1fa6:	4a 29       	or	r20, r10
    1fa8:	5b 29       	or	r21, r11
    1faa:	6c 29       	or	r22, r12
    1fac:	7d 29       	or	r23, r13
    1fae:	4d 83       	std	Y+5, r20	; 0x05
    1fb0:	5e 83       	std	Y+6, r21	; 0x06
    1fb2:	6f 83       	std	Y+7, r22	; 0x07
    1fb4:	78 87       	std	Y+8, r23	; 0x08
    1fb6:	8e e1       	ldi	r24, 0x1E	; 30
    1fb8:	90 e0       	ldi	r25, 0x00	; 0
    1fba:	8e 1b       	sub	r24, r30
    1fbc:	9f 0b       	sbc	r25, r31
    1fbe:	9c 83       	std	Y+4, r25	; 0x04
    1fc0:	8b 83       	std	Y+3, r24	; 0x03
    1fc2:	12 c0       	rjmp	.+36     	; 0x1fe8 <__floatunsisf+0xe0>
    1fc4:	30 97       	sbiw	r30, 0x00	; 0
    1fc6:	81 f0       	breq	.+32     	; 0x1fe8 <__floatunsisf+0xe0>
    1fc8:	0e 2e       	mov	r0, r30
    1fca:	04 c0       	rjmp	.+8      	; 0x1fd4 <__floatunsisf+0xcc>
    1fcc:	ee 0c       	add	r14, r14
    1fce:	ff 1c       	adc	r15, r15
    1fd0:	00 1f       	adc	r16, r16
    1fd2:	11 1f       	adc	r17, r17
    1fd4:	0a 94       	dec	r0
    1fd6:	d2 f7       	brpl	.-12     	; 0x1fcc <__floatunsisf+0xc4>
    1fd8:	ed 82       	std	Y+5, r14	; 0x05
    1fda:	fe 82       	std	Y+6, r15	; 0x06
    1fdc:	0f 83       	std	Y+7, r16	; 0x07
    1fde:	18 87       	std	Y+8, r17	; 0x08
    1fe0:	ce 1a       	sub	r12, r30
    1fe2:	df 0a       	sbc	r13, r31
    1fe4:	dc 82       	std	Y+4, r13	; 0x04
    1fe6:	cb 82       	std	Y+3, r12	; 0x03
    1fe8:	1a 82       	std	Y+2, r1	; 0x02
    1fea:	ce 01       	movw	r24, r28
    1fec:	01 96       	adiw	r24, 0x01	; 1
    1fee:	0e 94 4c 10 	call	0x2098	; 0x2098 <__pack_f>
    1ff2:	28 96       	adiw	r28, 0x08	; 8
    1ff4:	ea e0       	ldi	r30, 0x0A	; 10
    1ff6:	0c 94 16 12 	jmp	0x242c	; 0x242c <__epilogue_restores__+0x10>

00001ffa <__clzsi2>:
    1ffa:	ef 92       	push	r14
    1ffc:	ff 92       	push	r15
    1ffe:	0f 93       	push	r16
    2000:	1f 93       	push	r17
    2002:	7b 01       	movw	r14, r22
    2004:	8c 01       	movw	r16, r24
    2006:	80 e0       	ldi	r24, 0x00	; 0
    2008:	e8 16       	cp	r14, r24
    200a:	80 e0       	ldi	r24, 0x00	; 0
    200c:	f8 06       	cpc	r15, r24
    200e:	81 e0       	ldi	r24, 0x01	; 1
    2010:	08 07       	cpc	r16, r24
    2012:	80 e0       	ldi	r24, 0x00	; 0
    2014:	18 07       	cpc	r17, r24
    2016:	88 f4       	brcc	.+34     	; 0x203a <__clzsi2+0x40>
    2018:	8f ef       	ldi	r24, 0xFF	; 255
    201a:	e8 16       	cp	r14, r24
    201c:	f1 04       	cpc	r15, r1
    201e:	01 05       	cpc	r16, r1
    2020:	11 05       	cpc	r17, r1
    2022:	31 f0       	breq	.+12     	; 0x2030 <__clzsi2+0x36>
    2024:	28 f0       	brcs	.+10     	; 0x2030 <__clzsi2+0x36>
    2026:	88 e0       	ldi	r24, 0x08	; 8
    2028:	90 e0       	ldi	r25, 0x00	; 0
    202a:	a0 e0       	ldi	r26, 0x00	; 0
    202c:	b0 e0       	ldi	r27, 0x00	; 0
    202e:	17 c0       	rjmp	.+46     	; 0x205e <__clzsi2+0x64>
    2030:	80 e0       	ldi	r24, 0x00	; 0
    2032:	90 e0       	ldi	r25, 0x00	; 0
    2034:	a0 e0       	ldi	r26, 0x00	; 0
    2036:	b0 e0       	ldi	r27, 0x00	; 0
    2038:	12 c0       	rjmp	.+36     	; 0x205e <__clzsi2+0x64>
    203a:	80 e0       	ldi	r24, 0x00	; 0
    203c:	e8 16       	cp	r14, r24
    203e:	80 e0       	ldi	r24, 0x00	; 0
    2040:	f8 06       	cpc	r15, r24
    2042:	80 e0       	ldi	r24, 0x00	; 0
    2044:	08 07       	cpc	r16, r24
    2046:	81 e0       	ldi	r24, 0x01	; 1
    2048:	18 07       	cpc	r17, r24
    204a:	28 f0       	brcs	.+10     	; 0x2056 <__clzsi2+0x5c>
    204c:	88 e1       	ldi	r24, 0x18	; 24
    204e:	90 e0       	ldi	r25, 0x00	; 0
    2050:	a0 e0       	ldi	r26, 0x00	; 0
    2052:	b0 e0       	ldi	r27, 0x00	; 0
    2054:	04 c0       	rjmp	.+8      	; 0x205e <__clzsi2+0x64>
    2056:	80 e1       	ldi	r24, 0x10	; 16
    2058:	90 e0       	ldi	r25, 0x00	; 0
    205a:	a0 e0       	ldi	r26, 0x00	; 0
    205c:	b0 e0       	ldi	r27, 0x00	; 0
    205e:	20 e2       	ldi	r18, 0x20	; 32
    2060:	30 e0       	ldi	r19, 0x00	; 0
    2062:	40 e0       	ldi	r20, 0x00	; 0
    2064:	50 e0       	ldi	r21, 0x00	; 0
    2066:	28 1b       	sub	r18, r24
    2068:	39 0b       	sbc	r19, r25
    206a:	4a 0b       	sbc	r20, r26
    206c:	5b 0b       	sbc	r21, r27
    206e:	04 c0       	rjmp	.+8      	; 0x2078 <__clzsi2+0x7e>
    2070:	16 95       	lsr	r17
    2072:	07 95       	ror	r16
    2074:	f7 94       	ror	r15
    2076:	e7 94       	ror	r14
    2078:	8a 95       	dec	r24
    207a:	d2 f7       	brpl	.-12     	; 0x2070 <__clzsi2+0x76>
    207c:	f7 01       	movw	r30, r14
    207e:	ef 59       	subi	r30, 0x9F	; 159
    2080:	fe 4f       	sbci	r31, 0xFE	; 254
    2082:	80 81       	ld	r24, Z
    2084:	28 1b       	sub	r18, r24
    2086:	31 09       	sbc	r19, r1
    2088:	41 09       	sbc	r20, r1
    208a:	51 09       	sbc	r21, r1
    208c:	c9 01       	movw	r24, r18
    208e:	1f 91       	pop	r17
    2090:	0f 91       	pop	r16
    2092:	ff 90       	pop	r15
    2094:	ef 90       	pop	r14
    2096:	08 95       	ret

00002098 <__pack_f>:
    2098:	df 92       	push	r13
    209a:	ef 92       	push	r14
    209c:	ff 92       	push	r15
    209e:	0f 93       	push	r16
    20a0:	1f 93       	push	r17
    20a2:	fc 01       	movw	r30, r24
    20a4:	e4 80       	ldd	r14, Z+4	; 0x04
    20a6:	f5 80       	ldd	r15, Z+5	; 0x05
    20a8:	06 81       	ldd	r16, Z+6	; 0x06
    20aa:	17 81       	ldd	r17, Z+7	; 0x07
    20ac:	d1 80       	ldd	r13, Z+1	; 0x01
    20ae:	80 81       	ld	r24, Z
    20b0:	82 30       	cpi	r24, 0x02	; 2
    20b2:	48 f4       	brcc	.+18     	; 0x20c6 <__pack_f+0x2e>
    20b4:	80 e0       	ldi	r24, 0x00	; 0
    20b6:	90 e0       	ldi	r25, 0x00	; 0
    20b8:	a0 e1       	ldi	r26, 0x10	; 16
    20ba:	b0 e0       	ldi	r27, 0x00	; 0
    20bc:	e8 2a       	or	r14, r24
    20be:	f9 2a       	or	r15, r25
    20c0:	0a 2b       	or	r16, r26
    20c2:	1b 2b       	or	r17, r27
    20c4:	a5 c0       	rjmp	.+330    	; 0x2210 <__pack_f+0x178>
    20c6:	84 30       	cpi	r24, 0x04	; 4
    20c8:	09 f4       	brne	.+2      	; 0x20cc <__pack_f+0x34>
    20ca:	9f c0       	rjmp	.+318    	; 0x220a <__pack_f+0x172>
    20cc:	82 30       	cpi	r24, 0x02	; 2
    20ce:	21 f4       	brne	.+8      	; 0x20d8 <__pack_f+0x40>
    20d0:	ee 24       	eor	r14, r14
    20d2:	ff 24       	eor	r15, r15
    20d4:	87 01       	movw	r16, r14
    20d6:	05 c0       	rjmp	.+10     	; 0x20e2 <__pack_f+0x4a>
    20d8:	e1 14       	cp	r14, r1
    20da:	f1 04       	cpc	r15, r1
    20dc:	01 05       	cpc	r16, r1
    20de:	11 05       	cpc	r17, r1
    20e0:	19 f4       	brne	.+6      	; 0x20e8 <__pack_f+0x50>
    20e2:	e0 e0       	ldi	r30, 0x00	; 0
    20e4:	f0 e0       	ldi	r31, 0x00	; 0
    20e6:	96 c0       	rjmp	.+300    	; 0x2214 <__pack_f+0x17c>
    20e8:	62 81       	ldd	r22, Z+2	; 0x02
    20ea:	73 81       	ldd	r23, Z+3	; 0x03
    20ec:	9f ef       	ldi	r25, 0xFF	; 255
    20ee:	62 38       	cpi	r22, 0x82	; 130
    20f0:	79 07       	cpc	r23, r25
    20f2:	0c f0       	brlt	.+2      	; 0x20f6 <__pack_f+0x5e>
    20f4:	5b c0       	rjmp	.+182    	; 0x21ac <__pack_f+0x114>
    20f6:	22 e8       	ldi	r18, 0x82	; 130
    20f8:	3f ef       	ldi	r19, 0xFF	; 255
    20fa:	26 1b       	sub	r18, r22
    20fc:	37 0b       	sbc	r19, r23
    20fe:	2a 31       	cpi	r18, 0x1A	; 26
    2100:	31 05       	cpc	r19, r1
    2102:	2c f0       	brlt	.+10     	; 0x210e <__pack_f+0x76>
    2104:	20 e0       	ldi	r18, 0x00	; 0
    2106:	30 e0       	ldi	r19, 0x00	; 0
    2108:	40 e0       	ldi	r20, 0x00	; 0
    210a:	50 e0       	ldi	r21, 0x00	; 0
    210c:	2a c0       	rjmp	.+84     	; 0x2162 <__pack_f+0xca>
    210e:	b8 01       	movw	r22, r16
    2110:	a7 01       	movw	r20, r14
    2112:	02 2e       	mov	r0, r18
    2114:	04 c0       	rjmp	.+8      	; 0x211e <__pack_f+0x86>
    2116:	76 95       	lsr	r23
    2118:	67 95       	ror	r22
    211a:	57 95       	ror	r21
    211c:	47 95       	ror	r20
    211e:	0a 94       	dec	r0
    2120:	d2 f7       	brpl	.-12     	; 0x2116 <__pack_f+0x7e>
    2122:	81 e0       	ldi	r24, 0x01	; 1
    2124:	90 e0       	ldi	r25, 0x00	; 0
    2126:	a0 e0       	ldi	r26, 0x00	; 0
    2128:	b0 e0       	ldi	r27, 0x00	; 0
    212a:	04 c0       	rjmp	.+8      	; 0x2134 <__pack_f+0x9c>
    212c:	88 0f       	add	r24, r24
    212e:	99 1f       	adc	r25, r25
    2130:	aa 1f       	adc	r26, r26
    2132:	bb 1f       	adc	r27, r27
    2134:	2a 95       	dec	r18
    2136:	d2 f7       	brpl	.-12     	; 0x212c <__pack_f+0x94>
    2138:	01 97       	sbiw	r24, 0x01	; 1
    213a:	a1 09       	sbc	r26, r1
    213c:	b1 09       	sbc	r27, r1
    213e:	8e 21       	and	r24, r14
    2140:	9f 21       	and	r25, r15
    2142:	a0 23       	and	r26, r16
    2144:	b1 23       	and	r27, r17
    2146:	00 97       	sbiw	r24, 0x00	; 0
    2148:	a1 05       	cpc	r26, r1
    214a:	b1 05       	cpc	r27, r1
    214c:	21 f0       	breq	.+8      	; 0x2156 <__pack_f+0xbe>
    214e:	81 e0       	ldi	r24, 0x01	; 1
    2150:	90 e0       	ldi	r25, 0x00	; 0
    2152:	a0 e0       	ldi	r26, 0x00	; 0
    2154:	b0 e0       	ldi	r27, 0x00	; 0
    2156:	9a 01       	movw	r18, r20
    2158:	ab 01       	movw	r20, r22
    215a:	28 2b       	or	r18, r24
    215c:	39 2b       	or	r19, r25
    215e:	4a 2b       	or	r20, r26
    2160:	5b 2b       	or	r21, r27
    2162:	da 01       	movw	r26, r20
    2164:	c9 01       	movw	r24, r18
    2166:	8f 77       	andi	r24, 0x7F	; 127
    2168:	90 70       	andi	r25, 0x00	; 0
    216a:	a0 70       	andi	r26, 0x00	; 0
    216c:	b0 70       	andi	r27, 0x00	; 0
    216e:	80 34       	cpi	r24, 0x40	; 64
    2170:	91 05       	cpc	r25, r1
    2172:	a1 05       	cpc	r26, r1
    2174:	b1 05       	cpc	r27, r1
    2176:	39 f4       	brne	.+14     	; 0x2186 <__pack_f+0xee>
    2178:	27 ff       	sbrs	r18, 7
    217a:	09 c0       	rjmp	.+18     	; 0x218e <__pack_f+0xf6>
    217c:	20 5c       	subi	r18, 0xC0	; 192
    217e:	3f 4f       	sbci	r19, 0xFF	; 255
    2180:	4f 4f       	sbci	r20, 0xFF	; 255
    2182:	5f 4f       	sbci	r21, 0xFF	; 255
    2184:	04 c0       	rjmp	.+8      	; 0x218e <__pack_f+0xf6>
    2186:	21 5c       	subi	r18, 0xC1	; 193
    2188:	3f 4f       	sbci	r19, 0xFF	; 255
    218a:	4f 4f       	sbci	r20, 0xFF	; 255
    218c:	5f 4f       	sbci	r21, 0xFF	; 255
    218e:	e0 e0       	ldi	r30, 0x00	; 0
    2190:	f0 e0       	ldi	r31, 0x00	; 0
    2192:	20 30       	cpi	r18, 0x00	; 0
    2194:	a0 e0       	ldi	r26, 0x00	; 0
    2196:	3a 07       	cpc	r19, r26
    2198:	a0 e0       	ldi	r26, 0x00	; 0
    219a:	4a 07       	cpc	r20, r26
    219c:	a0 e4       	ldi	r26, 0x40	; 64
    219e:	5a 07       	cpc	r21, r26
    21a0:	10 f0       	brcs	.+4      	; 0x21a6 <__pack_f+0x10e>
    21a2:	e1 e0       	ldi	r30, 0x01	; 1
    21a4:	f0 e0       	ldi	r31, 0x00	; 0
    21a6:	79 01       	movw	r14, r18
    21a8:	8a 01       	movw	r16, r20
    21aa:	27 c0       	rjmp	.+78     	; 0x21fa <__pack_f+0x162>
    21ac:	60 38       	cpi	r22, 0x80	; 128
    21ae:	71 05       	cpc	r23, r1
    21b0:	64 f5       	brge	.+88     	; 0x220a <__pack_f+0x172>
    21b2:	fb 01       	movw	r30, r22
    21b4:	e1 58       	subi	r30, 0x81	; 129
    21b6:	ff 4f       	sbci	r31, 0xFF	; 255
    21b8:	d8 01       	movw	r26, r16
    21ba:	c7 01       	movw	r24, r14
    21bc:	8f 77       	andi	r24, 0x7F	; 127
    21be:	90 70       	andi	r25, 0x00	; 0
    21c0:	a0 70       	andi	r26, 0x00	; 0
    21c2:	b0 70       	andi	r27, 0x00	; 0
    21c4:	80 34       	cpi	r24, 0x40	; 64
    21c6:	91 05       	cpc	r25, r1
    21c8:	a1 05       	cpc	r26, r1
    21ca:	b1 05       	cpc	r27, r1
    21cc:	39 f4       	brne	.+14     	; 0x21dc <__pack_f+0x144>
    21ce:	e7 fe       	sbrs	r14, 7
    21d0:	0d c0       	rjmp	.+26     	; 0x21ec <__pack_f+0x154>
    21d2:	80 e4       	ldi	r24, 0x40	; 64
    21d4:	90 e0       	ldi	r25, 0x00	; 0
    21d6:	a0 e0       	ldi	r26, 0x00	; 0
    21d8:	b0 e0       	ldi	r27, 0x00	; 0
    21da:	04 c0       	rjmp	.+8      	; 0x21e4 <__pack_f+0x14c>
    21dc:	8f e3       	ldi	r24, 0x3F	; 63
    21de:	90 e0       	ldi	r25, 0x00	; 0
    21e0:	a0 e0       	ldi	r26, 0x00	; 0
    21e2:	b0 e0       	ldi	r27, 0x00	; 0
    21e4:	e8 0e       	add	r14, r24
    21e6:	f9 1e       	adc	r15, r25
    21e8:	0a 1f       	adc	r16, r26
    21ea:	1b 1f       	adc	r17, r27
    21ec:	17 ff       	sbrs	r17, 7
    21ee:	05 c0       	rjmp	.+10     	; 0x21fa <__pack_f+0x162>
    21f0:	16 95       	lsr	r17
    21f2:	07 95       	ror	r16
    21f4:	f7 94       	ror	r15
    21f6:	e7 94       	ror	r14
    21f8:	31 96       	adiw	r30, 0x01	; 1
    21fa:	87 e0       	ldi	r24, 0x07	; 7
    21fc:	16 95       	lsr	r17
    21fe:	07 95       	ror	r16
    2200:	f7 94       	ror	r15
    2202:	e7 94       	ror	r14
    2204:	8a 95       	dec	r24
    2206:	d1 f7       	brne	.-12     	; 0x21fc <__pack_f+0x164>
    2208:	05 c0       	rjmp	.+10     	; 0x2214 <__pack_f+0x17c>
    220a:	ee 24       	eor	r14, r14
    220c:	ff 24       	eor	r15, r15
    220e:	87 01       	movw	r16, r14
    2210:	ef ef       	ldi	r30, 0xFF	; 255
    2212:	f0 e0       	ldi	r31, 0x00	; 0
    2214:	6e 2f       	mov	r22, r30
    2216:	67 95       	ror	r22
    2218:	66 27       	eor	r22, r22
    221a:	67 95       	ror	r22
    221c:	90 2f       	mov	r25, r16
    221e:	9f 77       	andi	r25, 0x7F	; 127
    2220:	d7 94       	ror	r13
    2222:	dd 24       	eor	r13, r13
    2224:	d7 94       	ror	r13
    2226:	8e 2f       	mov	r24, r30
    2228:	86 95       	lsr	r24
    222a:	49 2f       	mov	r20, r25
    222c:	46 2b       	or	r20, r22
    222e:	58 2f       	mov	r21, r24
    2230:	5d 29       	or	r21, r13
    2232:	b7 01       	movw	r22, r14
    2234:	ca 01       	movw	r24, r20
    2236:	1f 91       	pop	r17
    2238:	0f 91       	pop	r16
    223a:	ff 90       	pop	r15
    223c:	ef 90       	pop	r14
    223e:	df 90       	pop	r13
    2240:	08 95       	ret

00002242 <__unpack_f>:
    2242:	fc 01       	movw	r30, r24
    2244:	db 01       	movw	r26, r22
    2246:	40 81       	ld	r20, Z
    2248:	51 81       	ldd	r21, Z+1	; 0x01
    224a:	22 81       	ldd	r18, Z+2	; 0x02
    224c:	62 2f       	mov	r22, r18
    224e:	6f 77       	andi	r22, 0x7F	; 127
    2250:	70 e0       	ldi	r23, 0x00	; 0
    2252:	22 1f       	adc	r18, r18
    2254:	22 27       	eor	r18, r18
    2256:	22 1f       	adc	r18, r18
    2258:	93 81       	ldd	r25, Z+3	; 0x03
    225a:	89 2f       	mov	r24, r25
    225c:	88 0f       	add	r24, r24
    225e:	82 2b       	or	r24, r18
    2260:	28 2f       	mov	r18, r24
    2262:	30 e0       	ldi	r19, 0x00	; 0
    2264:	99 1f       	adc	r25, r25
    2266:	99 27       	eor	r25, r25
    2268:	99 1f       	adc	r25, r25
    226a:	11 96       	adiw	r26, 0x01	; 1
    226c:	9c 93       	st	X, r25
    226e:	11 97       	sbiw	r26, 0x01	; 1
    2270:	21 15       	cp	r18, r1
    2272:	31 05       	cpc	r19, r1
    2274:	a9 f5       	brne	.+106    	; 0x22e0 <__unpack_f+0x9e>
    2276:	41 15       	cp	r20, r1
    2278:	51 05       	cpc	r21, r1
    227a:	61 05       	cpc	r22, r1
    227c:	71 05       	cpc	r23, r1
    227e:	11 f4       	brne	.+4      	; 0x2284 <__unpack_f+0x42>
    2280:	82 e0       	ldi	r24, 0x02	; 2
    2282:	37 c0       	rjmp	.+110    	; 0x22f2 <__unpack_f+0xb0>
    2284:	82 e8       	ldi	r24, 0x82	; 130
    2286:	9f ef       	ldi	r25, 0xFF	; 255
    2288:	13 96       	adiw	r26, 0x03	; 3
    228a:	9c 93       	st	X, r25
    228c:	8e 93       	st	-X, r24
    228e:	12 97       	sbiw	r26, 0x02	; 2
    2290:	9a 01       	movw	r18, r20
    2292:	ab 01       	movw	r20, r22
    2294:	67 e0       	ldi	r22, 0x07	; 7
    2296:	22 0f       	add	r18, r18
    2298:	33 1f       	adc	r19, r19
    229a:	44 1f       	adc	r20, r20
    229c:	55 1f       	adc	r21, r21
    229e:	6a 95       	dec	r22
    22a0:	d1 f7       	brne	.-12     	; 0x2296 <__unpack_f+0x54>
    22a2:	83 e0       	ldi	r24, 0x03	; 3
    22a4:	8c 93       	st	X, r24
    22a6:	0d c0       	rjmp	.+26     	; 0x22c2 <__unpack_f+0x80>
    22a8:	22 0f       	add	r18, r18
    22aa:	33 1f       	adc	r19, r19
    22ac:	44 1f       	adc	r20, r20
    22ae:	55 1f       	adc	r21, r21
    22b0:	12 96       	adiw	r26, 0x02	; 2
    22b2:	8d 91       	ld	r24, X+
    22b4:	9c 91       	ld	r25, X
    22b6:	13 97       	sbiw	r26, 0x03	; 3
    22b8:	01 97       	sbiw	r24, 0x01	; 1
    22ba:	13 96       	adiw	r26, 0x03	; 3
    22bc:	9c 93       	st	X, r25
    22be:	8e 93       	st	-X, r24
    22c0:	12 97       	sbiw	r26, 0x02	; 2
    22c2:	20 30       	cpi	r18, 0x00	; 0
    22c4:	80 e0       	ldi	r24, 0x00	; 0
    22c6:	38 07       	cpc	r19, r24
    22c8:	80 e0       	ldi	r24, 0x00	; 0
    22ca:	48 07       	cpc	r20, r24
    22cc:	80 e4       	ldi	r24, 0x40	; 64
    22ce:	58 07       	cpc	r21, r24
    22d0:	58 f3       	brcs	.-42     	; 0x22a8 <__unpack_f+0x66>
    22d2:	14 96       	adiw	r26, 0x04	; 4
    22d4:	2d 93       	st	X+, r18
    22d6:	3d 93       	st	X+, r19
    22d8:	4d 93       	st	X+, r20
    22da:	5c 93       	st	X, r21
    22dc:	17 97       	sbiw	r26, 0x07	; 7
    22de:	08 95       	ret
    22e0:	2f 3f       	cpi	r18, 0xFF	; 255
    22e2:	31 05       	cpc	r19, r1
    22e4:	79 f4       	brne	.+30     	; 0x2304 <__unpack_f+0xc2>
    22e6:	41 15       	cp	r20, r1
    22e8:	51 05       	cpc	r21, r1
    22ea:	61 05       	cpc	r22, r1
    22ec:	71 05       	cpc	r23, r1
    22ee:	19 f4       	brne	.+6      	; 0x22f6 <__unpack_f+0xb4>
    22f0:	84 e0       	ldi	r24, 0x04	; 4
    22f2:	8c 93       	st	X, r24
    22f4:	08 95       	ret
    22f6:	64 ff       	sbrs	r22, 4
    22f8:	03 c0       	rjmp	.+6      	; 0x2300 <__unpack_f+0xbe>
    22fa:	81 e0       	ldi	r24, 0x01	; 1
    22fc:	8c 93       	st	X, r24
    22fe:	12 c0       	rjmp	.+36     	; 0x2324 <__unpack_f+0xe2>
    2300:	1c 92       	st	X, r1
    2302:	10 c0       	rjmp	.+32     	; 0x2324 <__unpack_f+0xe2>
    2304:	2f 57       	subi	r18, 0x7F	; 127
    2306:	30 40       	sbci	r19, 0x00	; 0
    2308:	13 96       	adiw	r26, 0x03	; 3
    230a:	3c 93       	st	X, r19
    230c:	2e 93       	st	-X, r18
    230e:	12 97       	sbiw	r26, 0x02	; 2
    2310:	83 e0       	ldi	r24, 0x03	; 3
    2312:	8c 93       	st	X, r24
    2314:	87 e0       	ldi	r24, 0x07	; 7
    2316:	44 0f       	add	r20, r20
    2318:	55 1f       	adc	r21, r21
    231a:	66 1f       	adc	r22, r22
    231c:	77 1f       	adc	r23, r23
    231e:	8a 95       	dec	r24
    2320:	d1 f7       	brne	.-12     	; 0x2316 <__unpack_f+0xd4>
    2322:	70 64       	ori	r23, 0x40	; 64
    2324:	14 96       	adiw	r26, 0x04	; 4
    2326:	4d 93       	st	X+, r20
    2328:	5d 93       	st	X+, r21
    232a:	6d 93       	st	X+, r22
    232c:	7c 93       	st	X, r23
    232e:	17 97       	sbiw	r26, 0x07	; 7
    2330:	08 95       	ret

00002332 <__fpcmp_parts_f>:
    2332:	1f 93       	push	r17
    2334:	dc 01       	movw	r26, r24
    2336:	fb 01       	movw	r30, r22
    2338:	9c 91       	ld	r25, X
    233a:	92 30       	cpi	r25, 0x02	; 2
    233c:	08 f4       	brcc	.+2      	; 0x2340 <__fpcmp_parts_f+0xe>
    233e:	47 c0       	rjmp	.+142    	; 0x23ce <__fpcmp_parts_f+0x9c>
    2340:	80 81       	ld	r24, Z
    2342:	82 30       	cpi	r24, 0x02	; 2
    2344:	08 f4       	brcc	.+2      	; 0x2348 <__fpcmp_parts_f+0x16>
    2346:	43 c0       	rjmp	.+134    	; 0x23ce <__fpcmp_parts_f+0x9c>
    2348:	94 30       	cpi	r25, 0x04	; 4
    234a:	51 f4       	brne	.+20     	; 0x2360 <__fpcmp_parts_f+0x2e>
    234c:	11 96       	adiw	r26, 0x01	; 1
    234e:	1c 91       	ld	r17, X
    2350:	84 30       	cpi	r24, 0x04	; 4
    2352:	99 f5       	brne	.+102    	; 0x23ba <__fpcmp_parts_f+0x88>
    2354:	81 81       	ldd	r24, Z+1	; 0x01
    2356:	68 2f       	mov	r22, r24
    2358:	70 e0       	ldi	r23, 0x00	; 0
    235a:	61 1b       	sub	r22, r17
    235c:	71 09       	sbc	r23, r1
    235e:	3f c0       	rjmp	.+126    	; 0x23de <__fpcmp_parts_f+0xac>
    2360:	84 30       	cpi	r24, 0x04	; 4
    2362:	21 f0       	breq	.+8      	; 0x236c <__fpcmp_parts_f+0x3a>
    2364:	92 30       	cpi	r25, 0x02	; 2
    2366:	31 f4       	brne	.+12     	; 0x2374 <__fpcmp_parts_f+0x42>
    2368:	82 30       	cpi	r24, 0x02	; 2
    236a:	b9 f1       	breq	.+110    	; 0x23da <__fpcmp_parts_f+0xa8>
    236c:	81 81       	ldd	r24, Z+1	; 0x01
    236e:	88 23       	and	r24, r24
    2370:	89 f1       	breq	.+98     	; 0x23d4 <__fpcmp_parts_f+0xa2>
    2372:	2d c0       	rjmp	.+90     	; 0x23ce <__fpcmp_parts_f+0x9c>
    2374:	11 96       	adiw	r26, 0x01	; 1
    2376:	1c 91       	ld	r17, X
    2378:	11 97       	sbiw	r26, 0x01	; 1
    237a:	82 30       	cpi	r24, 0x02	; 2
    237c:	f1 f0       	breq	.+60     	; 0x23ba <__fpcmp_parts_f+0x88>
    237e:	81 81       	ldd	r24, Z+1	; 0x01
    2380:	18 17       	cp	r17, r24
    2382:	d9 f4       	brne	.+54     	; 0x23ba <__fpcmp_parts_f+0x88>
    2384:	12 96       	adiw	r26, 0x02	; 2
    2386:	2d 91       	ld	r18, X+
    2388:	3c 91       	ld	r19, X
    238a:	13 97       	sbiw	r26, 0x03	; 3
    238c:	82 81       	ldd	r24, Z+2	; 0x02
    238e:	93 81       	ldd	r25, Z+3	; 0x03
    2390:	82 17       	cp	r24, r18
    2392:	93 07       	cpc	r25, r19
    2394:	94 f0       	brlt	.+36     	; 0x23ba <__fpcmp_parts_f+0x88>
    2396:	28 17       	cp	r18, r24
    2398:	39 07       	cpc	r19, r25
    239a:	bc f0       	brlt	.+46     	; 0x23ca <__fpcmp_parts_f+0x98>
    239c:	14 96       	adiw	r26, 0x04	; 4
    239e:	8d 91       	ld	r24, X+
    23a0:	9d 91       	ld	r25, X+
    23a2:	0d 90       	ld	r0, X+
    23a4:	bc 91       	ld	r27, X
    23a6:	a0 2d       	mov	r26, r0
    23a8:	24 81       	ldd	r18, Z+4	; 0x04
    23aa:	35 81       	ldd	r19, Z+5	; 0x05
    23ac:	46 81       	ldd	r20, Z+6	; 0x06
    23ae:	57 81       	ldd	r21, Z+7	; 0x07
    23b0:	28 17       	cp	r18, r24
    23b2:	39 07       	cpc	r19, r25
    23b4:	4a 07       	cpc	r20, r26
    23b6:	5b 07       	cpc	r21, r27
    23b8:	18 f4       	brcc	.+6      	; 0x23c0 <__fpcmp_parts_f+0x8e>
    23ba:	11 23       	and	r17, r17
    23bc:	41 f0       	breq	.+16     	; 0x23ce <__fpcmp_parts_f+0x9c>
    23be:	0a c0       	rjmp	.+20     	; 0x23d4 <__fpcmp_parts_f+0xa2>
    23c0:	82 17       	cp	r24, r18
    23c2:	93 07       	cpc	r25, r19
    23c4:	a4 07       	cpc	r26, r20
    23c6:	b5 07       	cpc	r27, r21
    23c8:	40 f4       	brcc	.+16     	; 0x23da <__fpcmp_parts_f+0xa8>
    23ca:	11 23       	and	r17, r17
    23cc:	19 f0       	breq	.+6      	; 0x23d4 <__fpcmp_parts_f+0xa2>
    23ce:	61 e0       	ldi	r22, 0x01	; 1
    23d0:	70 e0       	ldi	r23, 0x00	; 0
    23d2:	05 c0       	rjmp	.+10     	; 0x23de <__fpcmp_parts_f+0xac>
    23d4:	6f ef       	ldi	r22, 0xFF	; 255
    23d6:	7f ef       	ldi	r23, 0xFF	; 255
    23d8:	02 c0       	rjmp	.+4      	; 0x23de <__fpcmp_parts_f+0xac>
    23da:	60 e0       	ldi	r22, 0x00	; 0
    23dc:	70 e0       	ldi	r23, 0x00	; 0
    23de:	cb 01       	movw	r24, r22
    23e0:	1f 91       	pop	r17
    23e2:	08 95       	ret

000023e4 <__prologue_saves__>:
    23e4:	2f 92       	push	r2
    23e6:	3f 92       	push	r3
    23e8:	4f 92       	push	r4
    23ea:	5f 92       	push	r5
    23ec:	6f 92       	push	r6
    23ee:	7f 92       	push	r7
    23f0:	8f 92       	push	r8
    23f2:	9f 92       	push	r9
    23f4:	af 92       	push	r10
    23f6:	bf 92       	push	r11
    23f8:	cf 92       	push	r12
    23fa:	df 92       	push	r13
    23fc:	ef 92       	push	r14
    23fe:	ff 92       	push	r15
    2400:	0f 93       	push	r16
    2402:	1f 93       	push	r17
    2404:	cf 93       	push	r28
    2406:	df 93       	push	r29
    2408:	cd b7       	in	r28, 0x3d	; 61
    240a:	de b7       	in	r29, 0x3e	; 62
    240c:	ca 1b       	sub	r28, r26
    240e:	db 0b       	sbc	r29, r27
    2410:	0f b6       	in	r0, 0x3f	; 63
    2412:	f8 94       	cli
    2414:	de bf       	out	0x3e, r29	; 62
    2416:	0f be       	out	0x3f, r0	; 63
    2418:	cd bf       	out	0x3d, r28	; 61
    241a:	09 94       	ijmp

0000241c <__epilogue_restores__>:
    241c:	2a 88       	ldd	r2, Y+18	; 0x12
    241e:	39 88       	ldd	r3, Y+17	; 0x11
    2420:	48 88       	ldd	r4, Y+16	; 0x10
    2422:	5f 84       	ldd	r5, Y+15	; 0x0f
    2424:	6e 84       	ldd	r6, Y+14	; 0x0e
    2426:	7d 84       	ldd	r7, Y+13	; 0x0d
    2428:	8c 84       	ldd	r8, Y+12	; 0x0c
    242a:	9b 84       	ldd	r9, Y+11	; 0x0b
    242c:	aa 84       	ldd	r10, Y+10	; 0x0a
    242e:	b9 84       	ldd	r11, Y+9	; 0x09
    2430:	c8 84       	ldd	r12, Y+8	; 0x08
    2432:	df 80       	ldd	r13, Y+7	; 0x07
    2434:	ee 80       	ldd	r14, Y+6	; 0x06
    2436:	fd 80       	ldd	r15, Y+5	; 0x05
    2438:	0c 81       	ldd	r16, Y+4	; 0x04
    243a:	1b 81       	ldd	r17, Y+3	; 0x03
    243c:	aa 81       	ldd	r26, Y+2	; 0x02
    243e:	b9 81       	ldd	r27, Y+1	; 0x01
    2440:	ce 0f       	add	r28, r30
    2442:	d1 1d       	adc	r29, r1
    2444:	0f b6       	in	r0, 0x3f	; 63
    2446:	f8 94       	cli
    2448:	de bf       	out	0x3e, r29	; 62
    244a:	0f be       	out	0x3f, r0	; 63
    244c:	cd bf       	out	0x3d, r28	; 61
    244e:	ed 01       	movw	r28, r26
    2450:	08 95       	ret

00002452 <__tablejump2__>:
    2452:	ee 0f       	add	r30, r30
    2454:	ff 1f       	adc	r31, r31

00002456 <__tablejump__>:
    2456:	05 90       	lpm	r0, Z+
    2458:	f4 91       	lpm	r31, Z+
    245a:	e0 2d       	mov	r30, r0
    245c:	09 94       	ijmp

0000245e <malloc>:
    245e:	cf 93       	push	r28
    2460:	df 93       	push	r29
    2462:	bc 01       	movw	r22, r24
    2464:	82 30       	cpi	r24, 0x02	; 2
    2466:	91 05       	cpc	r25, r1
    2468:	10 f4       	brcc	.+4      	; 0x246e <malloc+0x10>
    246a:	62 e0       	ldi	r22, 0x02	; 2
    246c:	70 e0       	ldi	r23, 0x00	; 0
    246e:	a0 91 82 03 	lds	r26, 0x0382
    2472:	b0 91 83 03 	lds	r27, 0x0383
    2476:	ed 01       	movw	r28, r26
    2478:	e0 e0       	ldi	r30, 0x00	; 0
    247a:	f0 e0       	ldi	r31, 0x00	; 0
    247c:	40 e0       	ldi	r20, 0x00	; 0
    247e:	50 e0       	ldi	r21, 0x00	; 0
    2480:	21 c0       	rjmp	.+66     	; 0x24c4 <malloc+0x66>
    2482:	88 81       	ld	r24, Y
    2484:	99 81       	ldd	r25, Y+1	; 0x01
    2486:	86 17       	cp	r24, r22
    2488:	97 07       	cpc	r25, r23
    248a:	69 f4       	brne	.+26     	; 0x24a6 <malloc+0x48>
    248c:	8a 81       	ldd	r24, Y+2	; 0x02
    248e:	9b 81       	ldd	r25, Y+3	; 0x03
    2490:	30 97       	sbiw	r30, 0x00	; 0
    2492:	19 f0       	breq	.+6      	; 0x249a <malloc+0x3c>
    2494:	93 83       	std	Z+3, r25	; 0x03
    2496:	82 83       	std	Z+2, r24	; 0x02
    2498:	04 c0       	rjmp	.+8      	; 0x24a2 <malloc+0x44>
    249a:	90 93 83 03 	sts	0x0383, r25
    249e:	80 93 82 03 	sts	0x0382, r24
    24a2:	fe 01       	movw	r30, r28
    24a4:	34 c0       	rjmp	.+104    	; 0x250e <malloc+0xb0>
    24a6:	68 17       	cp	r22, r24
    24a8:	79 07       	cpc	r23, r25
    24aa:	38 f4       	brcc	.+14     	; 0x24ba <malloc+0x5c>
    24ac:	41 15       	cp	r20, r1
    24ae:	51 05       	cpc	r21, r1
    24b0:	19 f0       	breq	.+6      	; 0x24b8 <malloc+0x5a>
    24b2:	84 17       	cp	r24, r20
    24b4:	95 07       	cpc	r25, r21
    24b6:	08 f4       	brcc	.+2      	; 0x24ba <malloc+0x5c>
    24b8:	ac 01       	movw	r20, r24
    24ba:	fe 01       	movw	r30, r28
    24bc:	8a 81       	ldd	r24, Y+2	; 0x02
    24be:	9b 81       	ldd	r25, Y+3	; 0x03
    24c0:	9c 01       	movw	r18, r24
    24c2:	e9 01       	movw	r28, r18
    24c4:	20 97       	sbiw	r28, 0x00	; 0
    24c6:	e9 f6       	brne	.-70     	; 0x2482 <malloc+0x24>
    24c8:	41 15       	cp	r20, r1
    24ca:	51 05       	cpc	r21, r1
    24cc:	a9 f1       	breq	.+106    	; 0x2538 <malloc+0xda>
    24ce:	ca 01       	movw	r24, r20
    24d0:	86 1b       	sub	r24, r22
    24d2:	97 0b       	sbc	r25, r23
    24d4:	04 97       	sbiw	r24, 0x04	; 4
    24d6:	08 f4       	brcc	.+2      	; 0x24da <malloc+0x7c>
    24d8:	ba 01       	movw	r22, r20
    24da:	e0 e0       	ldi	r30, 0x00	; 0
    24dc:	f0 e0       	ldi	r31, 0x00	; 0
    24de:	2a c0       	rjmp	.+84     	; 0x2534 <malloc+0xd6>
    24e0:	8d 91       	ld	r24, X+
    24e2:	9c 91       	ld	r25, X
    24e4:	11 97       	sbiw	r26, 0x01	; 1
    24e6:	84 17       	cp	r24, r20
    24e8:	95 07       	cpc	r25, r21
    24ea:	f9 f4       	brne	.+62     	; 0x252a <malloc+0xcc>
    24ec:	64 17       	cp	r22, r20
    24ee:	75 07       	cpc	r23, r21
    24f0:	81 f4       	brne	.+32     	; 0x2512 <malloc+0xb4>
    24f2:	12 96       	adiw	r26, 0x02	; 2
    24f4:	8d 91       	ld	r24, X+
    24f6:	9c 91       	ld	r25, X
    24f8:	13 97       	sbiw	r26, 0x03	; 3
    24fa:	30 97       	sbiw	r30, 0x00	; 0
    24fc:	19 f0       	breq	.+6      	; 0x2504 <malloc+0xa6>
    24fe:	93 83       	std	Z+3, r25	; 0x03
    2500:	82 83       	std	Z+2, r24	; 0x02
    2502:	04 c0       	rjmp	.+8      	; 0x250c <malloc+0xae>
    2504:	90 93 83 03 	sts	0x0383, r25
    2508:	80 93 82 03 	sts	0x0382, r24
    250c:	fd 01       	movw	r30, r26
    250e:	32 96       	adiw	r30, 0x02	; 2
    2510:	4f c0       	rjmp	.+158    	; 0x25b0 <malloc+0x152>
    2512:	ca 01       	movw	r24, r20
    2514:	86 1b       	sub	r24, r22
    2516:	97 0b       	sbc	r25, r23
    2518:	fd 01       	movw	r30, r26
    251a:	e8 0f       	add	r30, r24
    251c:	f9 1f       	adc	r31, r25
    251e:	61 93       	st	Z+, r22
    2520:	71 93       	st	Z+, r23
    2522:	02 97       	sbiw	r24, 0x02	; 2
    2524:	8d 93       	st	X+, r24
    2526:	9c 93       	st	X, r25
    2528:	43 c0       	rjmp	.+134    	; 0x25b0 <malloc+0x152>
    252a:	fd 01       	movw	r30, r26
    252c:	82 81       	ldd	r24, Z+2	; 0x02
    252e:	93 81       	ldd	r25, Z+3	; 0x03
    2530:	9c 01       	movw	r18, r24
    2532:	d9 01       	movw	r26, r18
    2534:	10 97       	sbiw	r26, 0x00	; 0
    2536:	a1 f6       	brne	.-88     	; 0x24e0 <malloc+0x82>
    2538:	80 91 80 03 	lds	r24, 0x0380
    253c:	90 91 81 03 	lds	r25, 0x0381
    2540:	89 2b       	or	r24, r25
    2542:	41 f4       	brne	.+16     	; 0x2554 <malloc+0xf6>
    2544:	80 91 63 02 	lds	r24, 0x0263
    2548:	90 91 64 02 	lds	r25, 0x0264
    254c:	90 93 81 03 	sts	0x0381, r25
    2550:	80 93 80 03 	sts	0x0380, r24
    2554:	40 91 65 02 	lds	r20, 0x0265
    2558:	50 91 66 02 	lds	r21, 0x0266
    255c:	41 15       	cp	r20, r1
    255e:	51 05       	cpc	r21, r1
    2560:	41 f4       	brne	.+16     	; 0x2572 <malloc+0x114>
    2562:	4d b7       	in	r20, 0x3d	; 61
    2564:	5e b7       	in	r21, 0x3e	; 62
    2566:	80 91 61 02 	lds	r24, 0x0261
    256a:	90 91 62 02 	lds	r25, 0x0262
    256e:	48 1b       	sub	r20, r24
    2570:	59 0b       	sbc	r21, r25
    2572:	20 91 80 03 	lds	r18, 0x0380
    2576:	30 91 81 03 	lds	r19, 0x0381
    257a:	24 17       	cp	r18, r20
    257c:	35 07       	cpc	r19, r21
    257e:	b0 f4       	brcc	.+44     	; 0x25ac <malloc+0x14e>
    2580:	ca 01       	movw	r24, r20
    2582:	82 1b       	sub	r24, r18
    2584:	93 0b       	sbc	r25, r19
    2586:	86 17       	cp	r24, r22
    2588:	97 07       	cpc	r25, r23
    258a:	80 f0       	brcs	.+32     	; 0x25ac <malloc+0x14e>
    258c:	ab 01       	movw	r20, r22
    258e:	4e 5f       	subi	r20, 0xFE	; 254
    2590:	5f 4f       	sbci	r21, 0xFF	; 255
    2592:	84 17       	cp	r24, r20
    2594:	95 07       	cpc	r25, r21
    2596:	50 f0       	brcs	.+20     	; 0x25ac <malloc+0x14e>
    2598:	42 0f       	add	r20, r18
    259a:	53 1f       	adc	r21, r19
    259c:	50 93 81 03 	sts	0x0381, r21
    25a0:	40 93 80 03 	sts	0x0380, r20
    25a4:	f9 01       	movw	r30, r18
    25a6:	61 93       	st	Z+, r22
    25a8:	71 93       	st	Z+, r23
    25aa:	02 c0       	rjmp	.+4      	; 0x25b0 <malloc+0x152>
    25ac:	e0 e0       	ldi	r30, 0x00	; 0
    25ae:	f0 e0       	ldi	r31, 0x00	; 0
    25b0:	cf 01       	movw	r24, r30
    25b2:	df 91       	pop	r29
    25b4:	cf 91       	pop	r28
    25b6:	08 95       	ret

000025b8 <free>:
    25b8:	cf 93       	push	r28
    25ba:	df 93       	push	r29
    25bc:	00 97       	sbiw	r24, 0x00	; 0
    25be:	09 f4       	brne	.+2      	; 0x25c2 <free+0xa>
    25c0:	50 c0       	rjmp	.+160    	; 0x2662 <free+0xaa>
    25c2:	ec 01       	movw	r28, r24
    25c4:	22 97       	sbiw	r28, 0x02	; 2
    25c6:	1b 82       	std	Y+3, r1	; 0x03
    25c8:	1a 82       	std	Y+2, r1	; 0x02
    25ca:	a0 91 82 03 	lds	r26, 0x0382
    25ce:	b0 91 83 03 	lds	r27, 0x0383
    25d2:	10 97       	sbiw	r26, 0x00	; 0
    25d4:	09 f1       	breq	.+66     	; 0x2618 <free+0x60>
    25d6:	40 e0       	ldi	r20, 0x00	; 0
    25d8:	50 e0       	ldi	r21, 0x00	; 0
    25da:	ac 17       	cp	r26, r28
    25dc:	bd 07       	cpc	r27, r29
    25de:	08 f1       	brcs	.+66     	; 0x2622 <free+0x6a>
    25e0:	bb 83       	std	Y+3, r27	; 0x03
    25e2:	aa 83       	std	Y+2, r26	; 0x02
    25e4:	fe 01       	movw	r30, r28
    25e6:	21 91       	ld	r18, Z+
    25e8:	31 91       	ld	r19, Z+
    25ea:	e2 0f       	add	r30, r18
    25ec:	f3 1f       	adc	r31, r19
    25ee:	ae 17       	cp	r26, r30
    25f0:	bf 07       	cpc	r27, r31
    25f2:	79 f4       	brne	.+30     	; 0x2612 <free+0x5a>
    25f4:	8d 91       	ld	r24, X+
    25f6:	9c 91       	ld	r25, X
    25f8:	11 97       	sbiw	r26, 0x01	; 1
    25fa:	28 0f       	add	r18, r24
    25fc:	39 1f       	adc	r19, r25
    25fe:	2e 5f       	subi	r18, 0xFE	; 254
    2600:	3f 4f       	sbci	r19, 0xFF	; 255
    2602:	39 83       	std	Y+1, r19	; 0x01
    2604:	28 83       	st	Y, r18
    2606:	12 96       	adiw	r26, 0x02	; 2
    2608:	8d 91       	ld	r24, X+
    260a:	9c 91       	ld	r25, X
    260c:	13 97       	sbiw	r26, 0x03	; 3
    260e:	9b 83       	std	Y+3, r25	; 0x03
    2610:	8a 83       	std	Y+2, r24	; 0x02
    2612:	41 15       	cp	r20, r1
    2614:	51 05       	cpc	r21, r1
    2616:	71 f4       	brne	.+28     	; 0x2634 <free+0x7c>
    2618:	d0 93 83 03 	sts	0x0383, r29
    261c:	c0 93 82 03 	sts	0x0382, r28
    2620:	20 c0       	rjmp	.+64     	; 0x2662 <free+0xaa>
    2622:	12 96       	adiw	r26, 0x02	; 2
    2624:	8d 91       	ld	r24, X+
    2626:	9c 91       	ld	r25, X
    2628:	13 97       	sbiw	r26, 0x03	; 3
    262a:	ad 01       	movw	r20, r26
    262c:	00 97       	sbiw	r24, 0x00	; 0
    262e:	11 f0       	breq	.+4      	; 0x2634 <free+0x7c>
    2630:	dc 01       	movw	r26, r24
    2632:	d3 cf       	rjmp	.-90     	; 0x25da <free+0x22>
    2634:	fa 01       	movw	r30, r20
    2636:	d3 83       	std	Z+3, r29	; 0x03
    2638:	c2 83       	std	Z+2, r28	; 0x02
    263a:	21 91       	ld	r18, Z+
    263c:	31 91       	ld	r19, Z+
    263e:	e2 0f       	add	r30, r18
    2640:	f3 1f       	adc	r31, r19
    2642:	ce 17       	cp	r28, r30
    2644:	df 07       	cpc	r29, r31
    2646:	69 f4       	brne	.+26     	; 0x2662 <free+0xaa>
    2648:	88 81       	ld	r24, Y
    264a:	99 81       	ldd	r25, Y+1	; 0x01
    264c:	28 0f       	add	r18, r24
    264e:	39 1f       	adc	r19, r25
    2650:	2e 5f       	subi	r18, 0xFE	; 254
    2652:	3f 4f       	sbci	r19, 0xFF	; 255
    2654:	fa 01       	movw	r30, r20
    2656:	31 83       	std	Z+1, r19	; 0x01
    2658:	20 83       	st	Z, r18
    265a:	8a 81       	ldd	r24, Y+2	; 0x02
    265c:	9b 81       	ldd	r25, Y+3	; 0x03
    265e:	93 83       	std	Z+3, r25	; 0x03
    2660:	82 83       	std	Z+2, r24	; 0x02
    2662:	df 91       	pop	r29
    2664:	cf 91       	pop	r28
    2666:	08 95       	ret

00002668 <strcat>:
    2668:	fb 01       	movw	r30, r22
    266a:	dc 01       	movw	r26, r24
    266c:	0d 90       	ld	r0, X+
    266e:	00 20       	and	r0, r0
    2670:	e9 f7       	brne	.-6      	; 0x266c <strcat+0x4>
    2672:	11 97       	sbiw	r26, 0x01	; 1
    2674:	01 90       	ld	r0, Z+
    2676:	0d 92       	st	X+, r0
    2678:	00 20       	and	r0, r0
    267a:	e1 f7       	brne	.-8      	; 0x2674 <strcat+0xc>
    267c:	08 95       	ret

0000267e <strcpy>:
    267e:	fb 01       	movw	r30, r22
    2680:	dc 01       	movw	r26, r24
    2682:	01 90       	ld	r0, Z+
    2684:	0d 92       	st	X+, r0
    2686:	00 20       	and	r0, r0
    2688:	e1 f7       	brne	.-8      	; 0x2682 <strcpy+0x4>
    268a:	08 95       	ret

0000268c <itoa>:
    268c:	fb 01       	movw	r30, r22
    268e:	9f 01       	movw	r18, r30
    2690:	e8 94       	clt
    2692:	42 30       	cpi	r20, 0x02	; 2
    2694:	c4 f0       	brlt	.+48     	; 0x26c6 <itoa+0x3a>
    2696:	45 32       	cpi	r20, 0x25	; 37
    2698:	b4 f4       	brge	.+44     	; 0x26c6 <itoa+0x3a>
    269a:	4a 30       	cpi	r20, 0x0A	; 10
    269c:	29 f4       	brne	.+10     	; 0x26a8 <itoa+0x1c>
    269e:	97 fb       	bst	r25, 7
    26a0:	1e f4       	brtc	.+6      	; 0x26a8 <itoa+0x1c>
    26a2:	90 95       	com	r25
    26a4:	81 95       	neg	r24
    26a6:	9f 4f       	sbci	r25, 0xFF	; 255
    26a8:	64 2f       	mov	r22, r20
    26aa:	77 27       	eor	r23, r23
    26ac:	0e 94 8d 13 	call	0x271a	; 0x271a <__udivmodhi4>
    26b0:	80 5d       	subi	r24, 0xD0	; 208
    26b2:	8a 33       	cpi	r24, 0x3A	; 58
    26b4:	0c f0       	brlt	.+2      	; 0x26b8 <itoa+0x2c>
    26b6:	89 5d       	subi	r24, 0xD9	; 217
    26b8:	81 93       	st	Z+, r24
    26ba:	cb 01       	movw	r24, r22
    26bc:	00 97       	sbiw	r24, 0x00	; 0
    26be:	a1 f7       	brne	.-24     	; 0x26a8 <itoa+0x1c>
    26c0:	16 f4       	brtc	.+4      	; 0x26c6 <itoa+0x3a>
    26c2:	5d e2       	ldi	r21, 0x2D	; 45
    26c4:	51 93       	st	Z+, r21
    26c6:	10 82       	st	Z, r1
    26c8:	c9 01       	movw	r24, r18
    26ca:	0c 94 7d 13 	jmp	0x26fa	; 0x26fa <strrev>

000026ce <utoa>:
    26ce:	fb 01       	movw	r30, r22
    26d0:	9f 01       	movw	r18, r30
    26d2:	42 30       	cpi	r20, 0x02	; 2
    26d4:	74 f0       	brlt	.+28     	; 0x26f2 <utoa+0x24>
    26d6:	45 32       	cpi	r20, 0x25	; 37
    26d8:	64 f4       	brge	.+24     	; 0x26f2 <utoa+0x24>
    26da:	64 2f       	mov	r22, r20
    26dc:	77 27       	eor	r23, r23
    26de:	0e 94 8d 13 	call	0x271a	; 0x271a <__udivmodhi4>
    26e2:	80 5d       	subi	r24, 0xD0	; 208
    26e4:	8a 33       	cpi	r24, 0x3A	; 58
    26e6:	0c f0       	brlt	.+2      	; 0x26ea <utoa+0x1c>
    26e8:	89 5d       	subi	r24, 0xD9	; 217
    26ea:	81 93       	st	Z+, r24
    26ec:	cb 01       	movw	r24, r22
    26ee:	00 97       	sbiw	r24, 0x00	; 0
    26f0:	a1 f7       	brne	.-24     	; 0x26da <utoa+0xc>
    26f2:	10 82       	st	Z, r1
    26f4:	c9 01       	movw	r24, r18
    26f6:	0c 94 7d 13 	jmp	0x26fa	; 0x26fa <strrev>

000026fa <strrev>:
    26fa:	dc 01       	movw	r26, r24
    26fc:	fc 01       	movw	r30, r24
    26fe:	67 2f       	mov	r22, r23
    2700:	71 91       	ld	r23, Z+
    2702:	77 23       	and	r23, r23
    2704:	e1 f7       	brne	.-8      	; 0x26fe <strrev+0x4>
    2706:	32 97       	sbiw	r30, 0x02	; 2
    2708:	04 c0       	rjmp	.+8      	; 0x2712 <strrev+0x18>
    270a:	7c 91       	ld	r23, X
    270c:	6d 93       	st	X+, r22
    270e:	70 83       	st	Z, r23
    2710:	62 91       	ld	r22, -Z
    2712:	ae 17       	cp	r26, r30
    2714:	bf 07       	cpc	r27, r31
    2716:	c8 f3       	brcs	.-14     	; 0x270a <strrev+0x10>
    2718:	08 95       	ret

0000271a <__udivmodhi4>:
    271a:	aa 1b       	sub	r26, r26
    271c:	bb 1b       	sub	r27, r27
    271e:	51 e1       	ldi	r21, 0x11	; 17
    2720:	07 c0       	rjmp	.+14     	; 0x2730 <__udivmodhi4_ep>

00002722 <__udivmodhi4_loop>:
    2722:	aa 1f       	adc	r26, r26
    2724:	bb 1f       	adc	r27, r27
    2726:	a6 17       	cp	r26, r22
    2728:	b7 07       	cpc	r27, r23
    272a:	10 f0       	brcs	.+4      	; 0x2730 <__udivmodhi4_ep>
    272c:	a6 1b       	sub	r26, r22
    272e:	b7 0b       	sbc	r27, r23

00002730 <__udivmodhi4_ep>:
    2730:	88 1f       	adc	r24, r24
    2732:	99 1f       	adc	r25, r25
    2734:	5a 95       	dec	r21
    2736:	a9 f7       	brne	.-22     	; 0x2722 <__udivmodhi4_loop>
    2738:	80 95       	com	r24
    273a:	90 95       	com	r25
    273c:	bc 01       	movw	r22, r24
    273e:	cd 01       	movw	r24, r26
    2740:	08 95       	ret

00002742 <_exit>:
    2742:	f8 94       	cli

00002744 <__stop_program>:
    2744:	ff cf       	rjmp	.-2      	; 0x2744 <__stop_program>
